	.text
	.file	"llvm-link"
	.section	.text.startup,"axG",@progbits,_ZN5boost16exception_detail37exception_ptr_static_exception_objectINS0_10bad_alloc_EE1eE,comdat
	.p2align	4, 0x90         # -- Begin function __cxx_global_var_init.5
	.type	__cxx_global_var_init.5,@function
__cxx_global_var_init.5:                # @__cxx_global_var_init.5
	.cfi_startproc
# %bb.0:
	pushq	%rbp
	.cfi_def_cfa_offset 16
	.cfi_offset %rbp, -16
	movq	%rsp, %rbp
	.cfi_def_cfa_register %rbp
	cmpb	$0, _ZGVN5boost16exception_detail37exception_ptr_static_exception_objectINS0_10bad_alloc_EE1eE(%rip)
	je	.LBB0_1
# %bb.2:
	popq	%rbp
	.cfi_def_cfa %rsp, 8
	retq
.LBB0_1:
	.cfi_def_cfa %rbp, 16
	movl	$_ZN5boost16exception_detail37exception_ptr_static_exception_objectINS0_10bad_alloc_EE1eE, %edi
	callq	_ZN5boost16exception_detail27get_static_exception_objectINS0_10bad_alloc_EEENS_13exception_ptrEv
	movl	$_ZN5boost13exception_ptrD2Ev, %edi
	movl	$_ZN5boost16exception_detail37exception_ptr_static_exception_objectINS0_10bad_alloc_EE1eE, %esi
	movl	$__dso_handle, %edx
	callq	__cxa_atexit
	movq	$1, _ZGVN5boost16exception_detail37exception_ptr_static_exception_objectINS0_10bad_alloc_EE1eE(%rip)
	popq	%rbp
	.cfi_def_cfa %rsp, 8
	retq
.Lfunc_end0:
	.size	__cxx_global_var_init.5, .Lfunc_end0-__cxx_global_var_init.5
	.cfi_endproc
                                        # -- End function
	.section	.text.startup,"axG",@progbits,_ZN5boost16exception_detail37exception_ptr_static_exception_objectINS0_14bad_exception_EE1eE,comdat
	.p2align	4, 0x90         # -- Begin function __cxx_global_var_init.6
	.type	__cxx_global_var_init.6,@function
__cxx_global_var_init.6:                # @__cxx_global_var_init.6
	.cfi_startproc
# %bb.0:
	pushq	%rbp
	.cfi_def_cfa_offset 16
	.cfi_offset %rbp, -16
	movq	%rsp, %rbp
	.cfi_def_cfa_register %rbp
	cmpb	$0, _ZGVN5boost16exception_detail37exception_ptr_static_exception_objectINS0_14bad_exception_EE1eE(%rip)
	je	.LBB1_1
# %bb.2:
	popq	%rbp
	.cfi_def_cfa %rsp, 8
	retq
.LBB1_1:
	.cfi_def_cfa %rbp, 16
	movl	$_ZN5boost16exception_detail37exception_ptr_static_exception_objectINS0_14bad_exception_EE1eE, %edi
	callq	_ZN5boost16exception_detail27get_static_exception_objectINS0_14bad_exception_EEENS_13exception_ptrEv
	movl	$_ZN5boost13exception_ptrD2Ev, %edi
	movl	$_ZN5boost16exception_detail37exception_ptr_static_exception_objectINS0_14bad_exception_EE1eE, %esi
	movl	$__dso_handle, %edx
	callq	__cxa_atexit
	movq	$1, _ZGVN5boost16exception_detail37exception_ptr_static_exception_objectINS0_14bad_exception_EE1eE(%rip)
	popq	%rbp
	.cfi_def_cfa %rsp, 8
	retq
.Lfunc_end1:
	.size	__cxx_global_var_init.6, .Lfunc_end1-__cxx_global_var_init.6
	.cfi_endproc
                                        # -- End function
	.section	.text.startup,"ax",@progbits
	.p2align	4, 0x90         # -- Begin function _GLOBAL__sub_I_boost_lock.cpp
	.type	_GLOBAL__sub_I_boost_lock.cpp,@function
_GLOBAL__sub_I_boost_lock.cpp:          # @_GLOBAL__sub_I_boost_lock.cpp
	.cfi_startproc
# %bb.0:
	pushq	%rbp
	.cfi_def_cfa_offset 16
	.cfi_offset %rbp, -16
	movq	%rsp, %rbp
	.cfi_def_cfa_register %rbp
	callq	__cxx_global_var_init
	callq	__cxx_global_var_init.1
	callq	__cxx_global_var_init.2
	callq	__cxx_global_var_init.3
	callq	__cxx_global_var_init.4
	popq	%rbp
	.cfi_def_cfa %rsp, 8
	retq
.Lfunc_end2:
	.size	_GLOBAL__sub_I_boost_lock.cpp, .Lfunc_end2-_GLOBAL__sub_I_boost_lock.cpp
	.cfi_endproc
                                        # -- End function
	.p2align	4, 0x90         # -- Begin function __cxx_global_var_init
	.type	__cxx_global_var_init,@function
__cxx_global_var_init:                  # @__cxx_global_var_init
	.cfi_startproc
# %bb.0:
	pushq	%rbp
	.cfi_def_cfa_offset 16
	.cfi_offset %rbp, -16
	movq	%rsp, %rbp
	.cfi_def_cfa_register %rbp
	movl	$_ZStL8__ioinit, %edi
	callq	_ZNSt8ios_base4InitC1Ev
	movl	$_ZNSt8ios_base4InitD1Ev, %edi
	movl	$_ZStL8__ioinit, %esi
	movl	$__dso_handle, %edx
	callq	__cxa_atexit
	popq	%rbp
	.cfi_def_cfa %rsp, 8
	retq
.Lfunc_end3:
	.size	__cxx_global_var_init, .Lfunc_end3-__cxx_global_var_init
	.cfi_endproc
                                        # -- End function
	.p2align	4, 0x90         # -- Begin function __cxx_global_var_init.1
	.type	__cxx_global_var_init.1,@function
__cxx_global_var_init.1:                # @__cxx_global_var_init.1
	.cfi_startproc
# %bb.0:
	pushq	%rbp
	.cfi_def_cfa_offset 16
	.cfi_offset %rbp, -16
	movq	%rsp, %rbp
	.cfi_def_cfa_register %rbp
	subq	$16, %rsp
	movl	$_ZN5boostL4noneE, %edi
	callq	_ZN5boost6none_tC2ENS0_8init_tagE
	addq	$16, %rsp
	popq	%rbp
	.cfi_def_cfa %rsp, 8
	retq
.Lfunc_end4:
	.size	__cxx_global_var_init.1, .Lfunc_end4-__cxx_global_var_init.1
	.cfi_endproc
                                        # -- End function
	.p2align	4, 0x90         # -- Begin function __cxx_global_var_init.2
	.type	__cxx_global_var_init.2,@function
__cxx_global_var_init.2:                # @__cxx_global_var_init.2
	.cfi_startproc
# %bb.0:
	pushq	%rbp
	.cfi_def_cfa_offset 16
	.cfi_offset %rbp, -16
	movq	%rsp, %rbp
	.cfi_def_cfa_register %rbp
	subq	$16, %rsp
	movl	$_ZN5boost11optional_nsL13in_place_initE, %edi
	callq	_ZN5boost11optional_ns15in_place_init_tC2ENS1_8init_tagE
	addq	$16, %rsp
	popq	%rbp
	.cfi_def_cfa %rsp, 8
	retq
.Lfunc_end5:
	.size	__cxx_global_var_init.2, .Lfunc_end5-__cxx_global_var_init.2
	.cfi_endproc
                                        # -- End function
	.p2align	4, 0x90         # -- Begin function __cxx_global_var_init.3
	.type	__cxx_global_var_init.3,@function
__cxx_global_var_init.3:                # @__cxx_global_var_init.3
	.cfi_startproc
# %bb.0:
	pushq	%rbp
	.cfi_def_cfa_offset 16
	.cfi_offset %rbp, -16
	movq	%rsp, %rbp
	.cfi_def_cfa_register %rbp
	subq	$16, %rsp
	movl	$_ZN5boost11optional_nsL16in_place_init_ifE, %edi
	callq	_ZN5boost11optional_ns18in_place_init_if_tC2ENS1_8init_tagE
	addq	$16, %rsp
	popq	%rbp
	.cfi_def_cfa %rsp, 8
	retq
.Lfunc_end6:
	.size	__cxx_global_var_init.3, .Lfunc_end6-__cxx_global_var_init.3
	.cfi_endproc
                                        # -- End function
	.p2align	4, 0x90         # -- Begin function __cxx_global_var_init.4
	.type	__cxx_global_var_init.4,@function
__cxx_global_var_init.4:                # @__cxx_global_var_init.4
	.cfi_startproc
# %bb.0:
	pushq	%rbp
	.cfi_def_cfa_offset 16
	.cfi_offset %rbp, -16
	movq	%rsp, %rbp
	.cfi_def_cfa_register %rbp
	movl	$result_mutex, %edi
	callq	_ZN5boost5mutexC2Ev
	movl	$_ZN5boost5mutexD2Ev, %edi
	movl	$result_mutex, %esi
	movl	$__dso_handle, %edx
	callq	__cxa_atexit
	popq	%rbp
	.cfi_def_cfa %rsp, 8
	retq
.Lfunc_end7:
	.size	__cxx_global_var_init.4, .Lfunc_end7-__cxx_global_var_init.4
	.cfi_endproc
                                        # -- End function
	.section	.text._ZN5boost5mutexC2Ev,"axG",@progbits,_ZN5boost5mutexC2Ev,comdat
	.weak	_ZN5boost5mutexC2Ev     # -- Begin function _ZN5boost5mutexC2Ev
	.p2align	4, 0x90
	.type	_ZN5boost5mutexC2Ev,@function
_ZN5boost5mutexC2Ev:                    # @_ZN5boost5mutexC2Ev
.Lfunc_begin0:
	.cfi_startproc
	.cfi_personality 3, __gxx_personality_v0
	.cfi_lsda 3, .Lexception0
# %bb.0:
	pushq	%rbp
	.cfi_def_cfa_offset 16
	.cfi_offset %rbp, -16
	movq	%rsp, %rbp
	.cfi_def_cfa_register %rbp
	pushq	%rbx
	subq	$104, %rsp
	.cfi_offset %rbx, -24
	movq	%rdi, -32(%rbp)
	movq	-32(%rbp), %rbx
	movl	$1, %edi
	callq	_Z17__ProduceProfilerv
	movq	%rbx, %rdi
	xorl	%esi, %esi
	callq	pthread_mutex_init
	movl	%eax, -12(%rbp)
	cmpl	$0, -12(%rbp)
	je	.LBB8_4
# %bb.1:
	movl	-12(%rbp), %esi
	leaq	-104(%rbp), %rbx
	movq	%rbx, %rdi
	movl	$.L.str.7, %edx
	callq	_ZN5boost21thread_resource_errorC2EiPKc
.Ltmp0:
	movq	%rbx, %rdi
	callq	_ZN5boost15throw_exceptionINS_21thread_resource_errorEEEvRKT_
.Ltmp1:
	jmp	.LBB8_2
.LBB8_2:
.LBB8_3:
.Ltmp2:
	movq	%rax, -24(%rbp)
	movl	%edx, -36(%rbp)
	leaq	-104(%rbp), %rdi
	callq	_ZN5boost21thread_resource_errorD2Ev
	jmp	.LBB8_5
.LBB8_4:
	addq	$104, %rsp
	popq	%rbx
	popq	%rbp
	.cfi_def_cfa %rsp, 8
	retq
.LBB8_5:
	.cfi_def_cfa %rbp, 16
	movq	-24(%rbp), %rdi
	callq	_Unwind_Resume
.Lfunc_end8:
	.size	_ZN5boost5mutexC2Ev, .Lfunc_end8-_ZN5boost5mutexC2Ev
	.cfi_endproc
	.section	.gcc_except_table,"a",@progbits
	.p2align	2
GCC_except_table8:
.Lexception0:
	.byte	255                     # @LPStart Encoding = omit
	.byte	255                     # @TType Encoding = omit
	.byte	1                       # Call site Encoding = uleb128
	.uleb128 .Lcst_end0-.Lcst_begin0
.Lcst_begin0:
	.uleb128 .Lfunc_begin0-.Lfunc_begin0 # >> Call Site 1 <<
	.uleb128 .Ltmp0-.Lfunc_begin0   #   Call between .Lfunc_begin0 and .Ltmp0
	.byte	0                       #     has no landing pad
	.byte	0                       #   On action: cleanup
	.uleb128 .Ltmp0-.Lfunc_begin0   # >> Call Site 2 <<
	.uleb128 .Ltmp1-.Ltmp0          #   Call between .Ltmp0 and .Ltmp1
	.uleb128 .Ltmp2-.Lfunc_begin0   #     jumps to .Ltmp2
	.byte	0                       #   On action: cleanup
	.uleb128 .Ltmp1-.Lfunc_begin0   # >> Call Site 3 <<
	.uleb128 .Lfunc_end8-.Ltmp1     #   Call between .Ltmp1 and .Lfunc_end8
	.byte	0                       #     has no landing pad
	.byte	0                       #   On action: cleanup
.Lcst_end0:
	.p2align	2
                                        # -- End function
	.section	.text._ZN5boost5mutexD2Ev,"axG",@progbits,_ZN5boost5mutexD2Ev,comdat
	.weak	_ZN5boost5mutexD2Ev     # -- Begin function _ZN5boost5mutexD2Ev
	.p2align	4, 0x90
	.type	_ZN5boost5mutexD2Ev,@function
_ZN5boost5mutexD2Ev:                    # @_ZN5boost5mutexD2Ev
	.cfi_startproc
# %bb.0:
	pushq	%rbp
	.cfi_def_cfa_offset 16
	.cfi_offset %rbp, -16
	movq	%rsp, %rbp
	.cfi_def_cfa_register %rbp
	pushq	%rbx
	subq	$40, %rsp
	.cfi_offset %rbx, -24
	movq	%rdi, -24(%rbp)
	movq	-24(%rbp), %rax
	movq	%rax, -32(%rbp)
.LBB9_1:                                # =>This Inner Loop Header: Depth=1
	movq	-32(%rbp), %rbx
	movl	$1, %edi
	callq	_Z30__getThreadCountAndWriteResultv
	movq	%rbx, %rdi
	callq	pthread_mutex_destroy
	movl	%eax, -16(%rbp)
	cmpl	$4, -16(%rbp)
	je	.LBB9_1
# %bb.2:
	movl	-16(%rbp), %eax
# %bb.3:
	movl	%eax, -12(%rbp)
	leaq	-12(%rbp), %rax
	movq	%rax, -40(%rbp)
# %bb.4:
	cmpl	$0, -12(%rbp)
	setne	%al
	xorb	$-1, %al
	testb	$1, %al
	jne	.LBB9_5
	jmp	.LBB9_6
.LBB9_5:
	jmp	.LBB9_7
.LBB9_6:
	movabsq	$.L.str.8, %rdi
	movabsq	$.L.str.9, %rsi
	movl	$107, %edx
	movabsq	$.L__PRETTY_FUNCTION__._ZN5boost5mutexD2Ev, %rcx
	callq	__assert_fail
.LBB9_7:
	addq	$40, %rsp
	popq	%rbx
	popq	%rbp
	.cfi_def_cfa %rsp, 8
	retq
.Lfunc_end9:
	.size	_ZN5boost5mutexD2Ev, .Lfunc_end9-_ZN5boost5mutexD2Ev
	.cfi_endproc
                                        # -- End function
	.section	.text.__clang_call_terminate,"axG",@progbits,__clang_call_terminate,comdat
	.hidden	__clang_call_terminate  # -- Begin function __clang_call_terminate
	.weak	__clang_call_terminate
	.p2align	4, 0x90
	.type	__clang_call_terminate,@function
__clang_call_terminate:                 # @__clang_call_terminate
# %bb.0:
	pushq	%rax
	callq	__cxa_begin_catch
	callq	_ZSt9terminatev
.Lfunc_end10:
	.size	__clang_call_terminate, .Lfunc_end10-__clang_call_terminate
                                        # -- End function
	.section	.text._ZN5boost21thread_resource_errorC2EiPKc,"axG",@progbits,_ZN5boost21thread_resource_errorC2EiPKc,comdat
	.weak	_ZN5boost21thread_resource_errorC2EiPKc # -- Begin function _ZN5boost21thread_resource_errorC2EiPKc
	.p2align	4, 0x90
	.type	_ZN5boost21thread_resource_errorC2EiPKc,@function
_ZN5boost21thread_resource_errorC2EiPKc: # @_ZN5boost21thread_resource_errorC2EiPKc
	.cfi_startproc
# %bb.0:
	pushq	%rbp
	.cfi_def_cfa_offset 16
	.cfi_offset %rbp, -16
	movq	%rsp, %rbp
	.cfi_def_cfa_register %rbp
	pushq	%rbx
	subq	$24, %rsp
	.cfi_offset %rbx, -24
	movq	%rdi, -32(%rbp)
	movl	%esi, -12(%rbp)
	movq	%rdx, -24(%rbp)
	movq	-32(%rbp), %rbx
	movl	-12(%rbp), %esi
	movq	-24(%rbp), %rdx
	movq	%rbx, %rdi
	callq	_ZN5boost16thread_exceptionC2EiPKc
	movabsq	$_ZTVN5boost21thread_resource_errorE, %rax
	addq	$16, %rax
	movq	%rax, (%rbx)
	addq	$24, %rsp
	popq	%rbx
	popq	%rbp
	.cfi_def_cfa %rsp, 8
	retq
.Lfunc_end11:
	.size	_ZN5boost21thread_resource_errorC2EiPKc, .Lfunc_end11-_ZN5boost21thread_resource_errorC2EiPKc
	.cfi_endproc
                                        # -- End function
	.section	.text._ZN5boost15throw_exceptionINS_21thread_resource_errorEEEvRKT_,"axG",@progbits,_ZN5boost15throw_exceptionINS_21thread_resource_errorEEEvRKT_,comdat
	.weak	_ZN5boost15throw_exceptionINS_21thread_resource_errorEEEvRKT_ # -- Begin function _ZN5boost15throw_exceptionINS_21thread_resource_errorEEEvRKT_
	.p2align	4, 0x90
	.type	_ZN5boost15throw_exceptionINS_21thread_resource_errorEEEvRKT_,@function
_ZN5boost15throw_exceptionINS_21thread_resource_errorEEEvRKT_: # @_ZN5boost15throw_exceptionINS_21thread_resource_errorEEEvRKT_
.Lfunc_begin1:
	.cfi_startproc
	.cfi_personality 3, __gxx_personality_v0
	.cfi_lsda 3, .Lexception1
# %bb.0:
	pushq	%rbp
	.cfi_def_cfa_offset 16
	.cfi_offset %rbp, -16
	movq	%rsp, %rbp
	.cfi_def_cfa_register %rbp
	pushq	%rbx
	subq	$136, %rsp
	.cfi_offset %rbx, -24
	movq	%rdi, -32(%rbp)
	movq	-32(%rbp), %rdi
	callq	_ZN5boost36throw_exception_assert_compatibilityERKSt9exception
	movl	$112, %edi
	callq	__cxa_allocate_exception
	movq	%rax, %rbx
	movb	$1, -9(%rbp)
	movq	-32(%rbp), %rsi
.Ltmp3:
	leaq	-136(%rbp), %rdi
	callq	_ZN5boost17enable_error_infoINS_21thread_resource_errorEEENS_16exception_detail29enable_error_info_return_typeIT_E4typeERKS4_
.Ltmp4:
	jmp	.LBB12_1
.LBB12_1:
.Ltmp6:
	leaq	-136(%rbp), %rsi
	movq	%rbx, %rdi
	callq	_ZN5boost24enable_current_exceptionINS_16exception_detail19error_info_injectorINS_21thread_resource_errorEEEEENS1_10clone_implIT_EERKS6_
.Ltmp7:
	jmp	.LBB12_2
.LBB12_2:
	movb	$0, -9(%rbp)
.Ltmp8:
	movq	%rbx, %rdi
	movl	$_ZTIN5boost16exception_detail10clone_implINS0_19error_info_injectorINS_21thread_resource_errorEEEEE, %esi
	movl	$_ZN5boost16exception_detail10clone_implINS0_19error_info_injectorINS_21thread_resource_errorEEEED1Ev, %edx
	callq	__cxa_throw
.Ltmp9:
	jmp	.LBB12_9
.LBB12_3:
.Ltmp5:
	movq	%rax, -24(%rbp)
	movl	%edx, -16(%rbp)
	jmp	.LBB12_5
.LBB12_4:
.Ltmp10:
	movq	%rax, -24(%rbp)
	movl	%edx, -16(%rbp)
	leaq	-136(%rbp), %rdi
	callq	_ZN5boost16exception_detail19error_info_injectorINS_21thread_resource_errorEED2Ev
.LBB12_5:
	testb	$1, -9(%rbp)
	jne	.LBB12_6
	jmp	.LBB12_7
.LBB12_6:
	movq	%rbx, %rdi
	callq	__cxa_free_exception
.LBB12_7:
	jmp	.LBB12_8
.LBB12_8:
	movq	-24(%rbp), %rdi
	callq	_Unwind_Resume
.LBB12_9:
.Lfunc_end12:
	.size	_ZN5boost15throw_exceptionINS_21thread_resource_errorEEEvRKT_, .Lfunc_end12-_ZN5boost15throw_exceptionINS_21thread_resource_errorEEEvRKT_
	.cfi_endproc
	.section	.gcc_except_table,"a",@progbits
	.p2align	2
GCC_except_table12:
.Lexception1:
	.byte	255                     # @LPStart Encoding = omit
	.byte	255                     # @TType Encoding = omit
	.byte	1                       # Call site Encoding = uleb128
	.uleb128 .Lcst_end1-.Lcst_begin1
.Lcst_begin1:
	.uleb128 .Lfunc_begin1-.Lfunc_begin1 # >> Call Site 1 <<
	.uleb128 .Ltmp3-.Lfunc_begin1   #   Call between .Lfunc_begin1 and .Ltmp3
	.byte	0                       #     has no landing pad
	.byte	0                       #   On action: cleanup
	.uleb128 .Ltmp3-.Lfunc_begin1   # >> Call Site 2 <<
	.uleb128 .Ltmp4-.Ltmp3          #   Call between .Ltmp3 and .Ltmp4
	.uleb128 .Ltmp5-.Lfunc_begin1   #     jumps to .Ltmp5
	.byte	0                       #   On action: cleanup
	.uleb128 .Ltmp6-.Lfunc_begin1   # >> Call Site 3 <<
	.uleb128 .Ltmp9-.Ltmp6          #   Call between .Ltmp6 and .Ltmp9
	.uleb128 .Ltmp10-.Lfunc_begin1  #     jumps to .Ltmp10
	.byte	0                       #   On action: cleanup
	.uleb128 .Ltmp9-.Lfunc_begin1   # >> Call Site 4 <<
	.uleb128 .Lfunc_end12-.Ltmp9    #   Call between .Ltmp9 and .Lfunc_end12
	.byte	0                       #     has no landing pad
	.byte	0                       #   On action: cleanup
.Lcst_end1:
	.p2align	2
                                        # -- End function
	.section	.text._ZN5boost21thread_resource_errorD2Ev,"axG",@progbits,_ZN5boost21thread_resource_errorD2Ev,comdat
	.weak	_ZN5boost21thread_resource_errorD2Ev # -- Begin function _ZN5boost21thread_resource_errorD2Ev
	.p2align	4, 0x90
	.type	_ZN5boost21thread_resource_errorD2Ev,@function
_ZN5boost21thread_resource_errorD2Ev:   # @_ZN5boost21thread_resource_errorD2Ev
	.cfi_startproc
# %bb.0:
	pushq	%rbp
	.cfi_def_cfa_offset 16
	.cfi_offset %rbp, -16
	movq	%rsp, %rbp
	.cfi_def_cfa_register %rbp
	subq	$16, %rsp
	movq	%rdi, -8(%rbp)
	movq	-8(%rbp), %rdi
	callq	_ZN5boost16thread_exceptionD2Ev
	addq	$16, %rsp
	popq	%rbp
	.cfi_def_cfa %rsp, 8
	retq
.Lfunc_end13:
	.size	_ZN5boost21thread_resource_errorD2Ev, .Lfunc_end13-_ZN5boost21thread_resource_errorD2Ev
	.cfi_endproc
                                        # -- End function
	.section	.text._ZN5boost16thread_exceptionD2Ev,"axG",@progbits,_ZN5boost16thread_exceptionD2Ev,comdat
	.weak	_ZN5boost16thread_exceptionD2Ev # -- Begin function _ZN5boost16thread_exceptionD2Ev
	.p2align	4, 0x90
	.type	_ZN5boost16thread_exceptionD2Ev,@function
_ZN5boost16thread_exceptionD2Ev:        # @_ZN5boost16thread_exceptionD2Ev
	.cfi_startproc
# %bb.0:
	pushq	%rbp
	.cfi_def_cfa_offset 16
	.cfi_offset %rbp, -16
	movq	%rsp, %rbp
	.cfi_def_cfa_register %rbp
	subq	$16, %rsp
	movq	%rdi, -8(%rbp)
	movq	-8(%rbp), %rdi
	callq	_ZN5boost6system12system_errorD2Ev
	addq	$16, %rsp
	popq	%rbp
	.cfi_def_cfa %rsp, 8
	retq
.Lfunc_end14:
	.size	_ZN5boost16thread_exceptionD2Ev, .Lfunc_end14-_ZN5boost16thread_exceptionD2Ev
	.cfi_endproc
                                        # -- End function
	.section	.text._ZN5boost6system12system_errorD2Ev,"axG",@progbits,_ZN5boost6system12system_errorD2Ev,comdat
	.weak	_ZN5boost6system12system_errorD2Ev # -- Begin function _ZN5boost6system12system_errorD2Ev
	.p2align	4, 0x90
	.type	_ZN5boost6system12system_errorD2Ev,@function
_ZN5boost6system12system_errorD2Ev:     # @_ZN5boost6system12system_errorD2Ev
	.cfi_startproc
# %bb.0:
	pushq	%rbp
	.cfi_def_cfa_offset 16
	.cfi_offset %rbp, -16
	movq	%rsp, %rbp
	.cfi_def_cfa_register %rbp
	pushq	%rbx
	pushq	%rax
	.cfi_offset %rbx, -24
	movabsq	$_ZTVN5boost6system12system_errorE, %rax
	addq	$16, %rax
	movq	%rdi, -16(%rbp)
	movq	-16(%rbp), %rbx
	movq	%rax, (%rbx)
	movq	%rbx, %rdi
	addq	$32, %rdi
	callq	_ZNSt7__cxx1112basic_stringIcSt11char_traitsIcESaIcEED1Ev
	movq	%rbx, %rdi
	callq	_ZNSt13runtime_errorD2Ev
	addq	$8, %rsp
	popq	%rbx
	popq	%rbp
	.cfi_def_cfa %rsp, 8
	retq
.Lfunc_end15:
	.size	_ZN5boost6system12system_errorD2Ev, .Lfunc_end15-_ZN5boost6system12system_errorD2Ev
	.cfi_endproc
                                        # -- End function
	.section	.text._ZN5boost6system12system_errorD0Ev,"axG",@progbits,_ZN5boost6system12system_errorD0Ev,comdat
	.weak	_ZN5boost6system12system_errorD0Ev # -- Begin function _ZN5boost6system12system_errorD0Ev
	.p2align	4, 0x90
	.type	_ZN5boost6system12system_errorD0Ev,@function
_ZN5boost6system12system_errorD0Ev:     # @_ZN5boost6system12system_errorD0Ev
	.cfi_startproc
# %bb.0:
	pushq	%rbp
	.cfi_def_cfa_offset 16
	.cfi_offset %rbp, -16
	movq	%rsp, %rbp
	.cfi_def_cfa_register %rbp
	pushq	%rbx
	pushq	%rax
	.cfi_offset %rbx, -24
	movq	%rdi, -16(%rbp)
	movq	-16(%rbp), %rbx
	movq	%rbx, %rdi
	callq	_ZN5boost6system12system_errorD2Ev
	movq	%rbx, %rdi
	callq	_ZdlPv
	addq	$8, %rsp
	popq	%rbx
	popq	%rbp
	.cfi_def_cfa %rsp, 8
	retq
.Lfunc_end16:
	.size	_ZN5boost6system12system_errorD0Ev, .Lfunc_end16-_ZN5boost6system12system_errorD0Ev
	.cfi_endproc
                                        # -- End function
	.section	.text._ZNK5boost6system12system_error4whatEv,"axG",@progbits,_ZNK5boost6system12system_error4whatEv,comdat
	.weak	_ZNK5boost6system12system_error4whatEv # -- Begin function _ZNK5boost6system12system_error4whatEv
	.p2align	4, 0x90
	.type	_ZNK5boost6system12system_error4whatEv,@function
_ZNK5boost6system12system_error4whatEv: # @_ZNK5boost6system12system_error4whatEv
.Lfunc_begin2:
	.cfi_startproc
	.cfi_personality 3, __gxx_personality_v0
	.cfi_lsda 3, .Lexception2
# %bb.0:
	pushq	%rbp
	.cfi_def_cfa_offset 16
	.cfi_offset %rbp, -16
	movq	%rsp, %rbp
	.cfi_def_cfa_register %rbp
	pushq	%rbx
	subq	$72, %rsp
	.cfi_offset %rbx, -24
	movq	%rdi, -40(%rbp)
	movq	-40(%rbp), %rbx
	movq	%rbx, %rdi
	addq	$32, %rdi
	callq	_ZNKSt7__cxx1112basic_stringIcSt11char_traitsIcESaIcEE5emptyEv
	testb	$1, %al
	jne	.LBB17_1
	jmp	.LBB17_13
.LBB17_1:
	movq	%rbx, %rdi
	callq	_ZNKSt13runtime_error4whatEv
	movq	%rbx, %rdi
	addq	$32, %rdi
.Ltmp11:
	movq	%rax, %rsi
	callq	_ZNSt7__cxx1112basic_stringIcSt11char_traitsIcESaIcEEaSEPKc
.Ltmp12:
	jmp	.LBB17_2
.LBB17_2:
	movq	%rbx, %rdi
	addq	$32, %rdi
	callq	_ZNKSt7__cxx1112basic_stringIcSt11char_traitsIcESaIcEE5emptyEv
	testb	$1, %al
	jne	.LBB17_6
# %bb.3:
	movq	%rbx, %rdi
	addq	$32, %rdi
.Ltmp13:
	movl	$.L.str, %esi
	callq	_ZNSt7__cxx1112basic_stringIcSt11char_traitsIcESaIcEEpLEPKc
.Ltmp14:
	jmp	.LBB17_4
.LBB17_4:
	jmp	.LBB17_6
.LBB17_5:
.Ltmp17:
	movq	%rax, -24(%rbp)
	movl	%edx, -12(%rbp)
	jmp	.LBB17_10
.LBB17_6:
	movq	%rbx, %rsi
	addq	$16, %rsi
.Ltmp15:
	leaq	-72(%rbp), %rdi
	callq	_ZNK5boost6system10error_code7messageB5cxx11Ev
.Ltmp16:
	jmp	.LBB17_7
.LBB17_7:
	movq	%rbx, %rdi
	addq	$32, %rdi
.Ltmp18:
	leaq	-72(%rbp), %rsi
	callq	_ZNSt7__cxx1112basic_stringIcSt11char_traitsIcESaIcEEpLERKS4_
.Ltmp19:
	jmp	.LBB17_8
.LBB17_8:
	leaq	-72(%rbp), %rdi
	callq	_ZNSt7__cxx1112basic_stringIcSt11char_traitsIcESaIcEED1Ev
	jmp	.LBB17_12
.LBB17_9:
.Ltmp20:
	movq	%rax, -24(%rbp)
	movl	%edx, -12(%rbp)
	leaq	-72(%rbp), %rdi
	callq	_ZNSt7__cxx1112basic_stringIcSt11char_traitsIcESaIcEED1Ev
.LBB17_10:
	movq	-24(%rbp), %rdi
	callq	__cxa_begin_catch
	movq	%rbx, %rdi
	callq	_ZNKSt13runtime_error4whatEv
	movq	%rax, -32(%rbp)
.Ltmp21:
	callq	__cxa_end_catch
.Ltmp22:
	jmp	.LBB17_11
.LBB17_11:
	jmp	.LBB17_14
.LBB17_12:
	jmp	.LBB17_13
.LBB17_13:
	addq	$32, %rbx
	movq	%rbx, %rdi
	callq	_ZNKSt7__cxx1112basic_stringIcSt11char_traitsIcESaIcEE5c_strEv
	movq	%rax, -32(%rbp)
.LBB17_14:
	movq	-32(%rbp), %rax
	addq	$72, %rsp
	popq	%rbx
	popq	%rbp
	.cfi_def_cfa %rsp, 8
	retq
.LBB17_15:
	.cfi_def_cfa %rbp, 16
.Ltmp23:
                                        # kill: killed $rdx
	movq	%rax, %rdi
	callq	__clang_call_terminate
.Lfunc_end17:
	.size	_ZNK5boost6system12system_error4whatEv, .Lfunc_end17-_ZNK5boost6system12system_error4whatEv
	.cfi_endproc
	.section	.gcc_except_table,"a",@progbits
	.p2align	2
GCC_except_table17:
.Lexception2:
	.byte	255                     # @LPStart Encoding = omit
	.byte	3                       # @TType Encoding = udata4
	.uleb128 .Lttbase0-.Lttbaseref0
.Lttbaseref0:
	.byte	1                       # Call site Encoding = uleb128
	.uleb128 .Lcst_end2-.Lcst_begin2
.Lcst_begin2:
	.uleb128 .Ltmp11-.Lfunc_begin2  # >> Call Site 1 <<
	.uleb128 .Ltmp16-.Ltmp11        #   Call between .Ltmp11 and .Ltmp16
	.uleb128 .Ltmp17-.Lfunc_begin2  #     jumps to .Ltmp17
	.byte	1                       #   On action: 1
	.uleb128 .Ltmp18-.Lfunc_begin2  # >> Call Site 2 <<
	.uleb128 .Ltmp19-.Ltmp18        #   Call between .Ltmp18 and .Ltmp19
	.uleb128 .Ltmp20-.Lfunc_begin2  #     jumps to .Ltmp20
	.byte	1                       #   On action: 1
	.uleb128 .Ltmp19-.Lfunc_begin2  # >> Call Site 3 <<
	.uleb128 .Ltmp21-.Ltmp19        #   Call between .Ltmp19 and .Ltmp21
	.byte	0                       #     has no landing pad
	.byte	0                       #   On action: cleanup
	.uleb128 .Ltmp21-.Lfunc_begin2  # >> Call Site 4 <<
	.uleb128 .Ltmp22-.Ltmp21        #   Call between .Ltmp21 and .Ltmp22
	.uleb128 .Ltmp23-.Lfunc_begin2  #     jumps to .Ltmp23
	.byte	1                       #   On action: 1
.Lcst_end2:
	.byte	1                       # >> Action Record 1 <<
                                        #   Catch TypeInfo 1
	.byte	0                       #   No further actions
	.p2align	2
                                        # >> Catch TypeInfos <<
	.long	0                       # TypeInfo 1
.Lttbase0:
	.p2align	2
                                        # -- End function
	.section	.text._ZNK5boost6system10error_code7messageB5cxx11Ev,"axG",@progbits,_ZNK5boost6system10error_code7messageB5cxx11Ev,comdat
	.weak	_ZNK5boost6system10error_code7messageB5cxx11Ev # -- Begin function _ZNK5boost6system10error_code7messageB5cxx11Ev
	.p2align	4, 0x90
	.type	_ZNK5boost6system10error_code7messageB5cxx11Ev,@function
_ZNK5boost6system10error_code7messageB5cxx11Ev: # @_ZNK5boost6system10error_code7messageB5cxx11Ev
	.cfi_startproc
# %bb.0:
	pushq	%rbp
	.cfi_def_cfa_offset 16
	.cfi_offset %rbp, -16
	movq	%rsp, %rbp
	.cfi_def_cfa_register %rbp
	pushq	%r14
	pushq	%rbx
	subq	$16, %rsp
	.cfi_offset %rbx, -32
	.cfi_offset %r14, -24
	movq	%rdi, %rbx
	movq	%rbx, -32(%rbp)
	movq	%rsi, -24(%rbp)
	movq	-24(%rbp), %rdi
	movq	8(%rdi), %r14
	callq	_ZNK5boost6system10error_code5valueEv
	movq	(%r14), %rcx
	movq	%rbx, %rdi
	movq	%r14, %rsi
	movl	%eax, %edx
	callq	*24(%rcx)
	movq	%rbx, %rax
	addq	$16, %rsp
	popq	%rbx
	popq	%r14
	popq	%rbp
	.cfi_def_cfa %rsp, 8
	retq
.Lfunc_end18:
	.size	_ZNK5boost6system10error_code7messageB5cxx11Ev, .Lfunc_end18-_ZNK5boost6system10error_code7messageB5cxx11Ev
	.cfi_endproc
                                        # -- End function
	.section	.text._ZNK5boost6system10error_code5valueEv,"axG",@progbits,_ZNK5boost6system10error_code5valueEv,comdat
	.weak	_ZNK5boost6system10error_code5valueEv # -- Begin function _ZNK5boost6system10error_code5valueEv
	.p2align	4, 0x90
	.type	_ZNK5boost6system10error_code5valueEv,@function
_ZNK5boost6system10error_code5valueEv:  # @_ZNK5boost6system10error_code5valueEv
	.cfi_startproc
# %bb.0:
	pushq	%rbp
	.cfi_def_cfa_offset 16
	.cfi_offset %rbp, -16
	movq	%rsp, %rbp
	.cfi_def_cfa_register %rbp
	movq	%rdi, -8(%rbp)
	movq	-8(%rbp), %rax
	movl	(%rax), %eax
	popq	%rbp
	.cfi_def_cfa %rsp, 8
	retq
.Lfunc_end19:
	.size	_ZNK5boost6system10error_code5valueEv, .Lfunc_end19-_ZNK5boost6system10error_code5valueEv
	.cfi_endproc
                                        # -- End function
	.section	.text._ZN5boost36throw_exception_assert_compatibilityERKSt9exception,"axG",@progbits,_ZN5boost36throw_exception_assert_compatibilityERKSt9exception,comdat
	.weak	_ZN5boost36throw_exception_assert_compatibilityERKSt9exception # -- Begin function _ZN5boost36throw_exception_assert_compatibilityERKSt9exception
	.p2align	4, 0x90
	.type	_ZN5boost36throw_exception_assert_compatibilityERKSt9exception,@function
_ZN5boost36throw_exception_assert_compatibilityERKSt9exception: # @_ZN5boost36throw_exception_assert_compatibilityERKSt9exception
	.cfi_startproc
# %bb.0:
	pushq	%rbp
	.cfi_def_cfa_offset 16
	.cfi_offset %rbp, -16
	movq	%rsp, %rbp
	.cfi_def_cfa_register %rbp
	movq	%rdi, -8(%rbp)
	popq	%rbp
	.cfi_def_cfa %rsp, 8
	retq
.Lfunc_end20:
	.size	_ZN5boost36throw_exception_assert_compatibilityERKSt9exception, .Lfunc_end20-_ZN5boost36throw_exception_assert_compatibilityERKSt9exception
	.cfi_endproc
                                        # -- End function
	.section	.text._ZN5boost17enable_error_infoINS_21thread_resource_errorEEENS_16exception_detail29enable_error_info_return_typeIT_E4typeERKS4_,"axG",@progbits,_ZN5boost17enable_error_infoINS_21thread_resource_errorEEENS_16exception_detail29enable_error_info_return_typeIT_E4typeERKS4_,comdat
	.weak	_ZN5boost17enable_error_infoINS_21thread_resource_errorEEENS_16exception_detail29enable_error_info_return_typeIT_E4typeERKS4_ # -- Begin function _ZN5boost17enable_error_infoINS_21thread_resource_errorEEENS_16exception_detail29enable_error_info_return_typeIT_E4typeERKS4_
	.p2align	4, 0x90
	.type	_ZN5boost17enable_error_infoINS_21thread_resource_errorEEENS_16exception_detail29enable_error_info_return_typeIT_E4typeERKS4_,@function
_ZN5boost17enable_error_infoINS_21thread_resource_errorEEENS_16exception_detail29enable_error_info_return_typeIT_E4typeERKS4_: # @_ZN5boost17enable_error_infoINS_21thread_resource_errorEEENS_16exception_detail29enable_error_info_return_typeIT_E4typeERKS4_
	.cfi_startproc
# %bb.0:
	pushq	%rbp
	.cfi_def_cfa_offset 16
	.cfi_offset %rbp, -16
	movq	%rsp, %rbp
	.cfi_def_cfa_register %rbp
	pushq	%rbx
	subq	$24, %rsp
	.cfi_offset %rbx, -24
	movq	%rdi, %rbx
	movq	%rbx, -24(%rbp)
	movq	%rsi, -16(%rbp)
	movq	-16(%rbp), %rsi
	movq	%rbx, %rdi
	callq	_ZN5boost16exception_detail19error_info_injectorINS_21thread_resource_errorEEC2ERKS2_
	movq	%rbx, %rax
	addq	$24, %rsp
	popq	%rbx
	popq	%rbp
	.cfi_def_cfa %rsp, 8
	retq
.Lfunc_end21:
	.size	_ZN5boost17enable_error_infoINS_21thread_resource_errorEEENS_16exception_detail29enable_error_info_return_typeIT_E4typeERKS4_, .Lfunc_end21-_ZN5boost17enable_error_infoINS_21thread_resource_errorEEENS_16exception_detail29enable_error_info_return_typeIT_E4typeERKS4_
	.cfi_endproc
                                        # -- End function
	.section	.text._ZN5boost24enable_current_exceptionINS_16exception_detail19error_info_injectorINS_21thread_resource_errorEEEEENS1_10clone_implIT_EERKS6_,"axG",@progbits,_ZN5boost24enable_current_exceptionINS_16exception_detail19error_info_injectorINS_21thread_resource_errorEEEEENS1_10clone_implIT_EERKS6_,comdat
	.weak	_ZN5boost24enable_current_exceptionINS_16exception_detail19error_info_injectorINS_21thread_resource_errorEEEEENS1_10clone_implIT_EERKS6_ # -- Begin function _ZN5boost24enable_current_exceptionINS_16exception_detail19error_info_injectorINS_21thread_resource_errorEEEEENS1_10clone_implIT_EERKS6_
	.p2align	4, 0x90
	.type	_ZN5boost24enable_current_exceptionINS_16exception_detail19error_info_injectorINS_21thread_resource_errorEEEEENS1_10clone_implIT_EERKS6_,@function
_ZN5boost24enable_current_exceptionINS_16exception_detail19error_info_injectorINS_21thread_resource_errorEEEEENS1_10clone_implIT_EERKS6_: # @_ZN5boost24enable_current_exceptionINS_16exception_detail19error_info_injectorINS_21thread_resource_errorEEEEENS1_10clone_implIT_EERKS6_
	.cfi_startproc
# %bb.0:
	pushq	%rbp
	.cfi_def_cfa_offset 16
	.cfi_offset %rbp, -16
	movq	%rsp, %rbp
	.cfi_def_cfa_register %rbp
	pushq	%rbx
	subq	$24, %rsp
	.cfi_offset %rbx, -24
	movq	%rdi, %rbx
	movq	%rbx, -24(%rbp)
	movq	%rsi, -16(%rbp)
	movq	-16(%rbp), %rsi
	movq	%rbx, %rdi
	callq	_ZN5boost16exception_detail10clone_implINS0_19error_info_injectorINS_21thread_resource_errorEEEEC1ERKS4_
	movq	%rbx, %rax
	addq	$24, %rsp
	popq	%rbx
	popq	%rbp
	.cfi_def_cfa %rsp, 8
	retq
.Lfunc_end22:
	.size	_ZN5boost24enable_current_exceptionINS_16exception_detail19error_info_injectorINS_21thread_resource_errorEEEEENS1_10clone_implIT_EERKS6_, .Lfunc_end22-_ZN5boost24enable_current_exceptionINS_16exception_detail19error_info_injectorINS_21thread_resource_errorEEEEENS1_10clone_implIT_EERKS6_
	.cfi_endproc
                                        # -- End function
	.section	.text._ZN5boost16exception_detail10clone_implINS0_19error_info_injectorINS_21thread_resource_errorEEEED1Ev,"axG",@progbits,_ZN5boost16exception_detail10clone_implINS0_19error_info_injectorINS_21thread_resource_errorEEEED1Ev,comdat
	.weak	_ZN5boost16exception_detail10clone_implINS0_19error_info_injectorINS_21thread_resource_errorEEEED1Ev # -- Begin function _ZN5boost16exception_detail10clone_implINS0_19error_info_injectorINS_21thread_resource_errorEEEED1Ev
	.p2align	4, 0x90
	.type	_ZN5boost16exception_detail10clone_implINS0_19error_info_injectorINS_21thread_resource_errorEEEED1Ev,@function
_ZN5boost16exception_detail10clone_implINS0_19error_info_injectorINS_21thread_resource_errorEEEED1Ev: # @_ZN5boost16exception_detail10clone_implINS0_19error_info_injectorINS_21thread_resource_errorEEEED1Ev
	.cfi_startproc
# %bb.0:
	pushq	%rbp
	.cfi_def_cfa_offset 16
	.cfi_offset %rbp, -16
	movq	%rsp, %rbp
	.cfi_def_cfa_register %rbp
	pushq	%rbx
	pushq	%rax
	.cfi_offset %rbx, -24
	movq	%rdi, -16(%rbp)
	movq	-16(%rbp), %rbx
	movq	%rbx, %rdi
	movabsq	$_ZTTN5boost16exception_detail10clone_implINS0_19error_info_injectorINS_21thread_resource_errorEEEEE, %rsi
	callq	_ZN5boost16exception_detail10clone_implINS0_19error_info_injectorINS_21thread_resource_errorEEEED2Ev
	addq	$104, %rbx
	movq	%rbx, %rdi
	callq	_ZN5boost16exception_detail10clone_baseD2Ev
	addq	$8, %rsp
	popq	%rbx
	popq	%rbp
	.cfi_def_cfa %rsp, 8
	retq
.Lfunc_end23:
	.size	_ZN5boost16exception_detail10clone_implINS0_19error_info_injectorINS_21thread_resource_errorEEEED1Ev, .Lfunc_end23-_ZN5boost16exception_detail10clone_implINS0_19error_info_injectorINS_21thread_resource_errorEEEED1Ev
	.cfi_endproc
                                        # -- End function
	.section	.text._ZN5boost16exception_detail19error_info_injectorINS_21thread_resource_errorEED2Ev,"axG",@progbits,_ZN5boost16exception_detail19error_info_injectorINS_21thread_resource_errorEED2Ev,comdat
	.weak	_ZN5boost16exception_detail19error_info_injectorINS_21thread_resource_errorEED2Ev # -- Begin function _ZN5boost16exception_detail19error_info_injectorINS_21thread_resource_errorEED2Ev
	.p2align	4, 0x90
	.type	_ZN5boost16exception_detail19error_info_injectorINS_21thread_resource_errorEED2Ev,@function
_ZN5boost16exception_detail19error_info_injectorINS_21thread_resource_errorEED2Ev: # @_ZN5boost16exception_detail19error_info_injectorINS_21thread_resource_errorEED2Ev
	.cfi_startproc
# %bb.0:
	pushq	%rbp
	.cfi_def_cfa_offset 16
	.cfi_offset %rbp, -16
	movq	%rsp, %rbp
	.cfi_def_cfa_register %rbp
	pushq	%rbx
	pushq	%rax
	.cfi_offset %rbx, -24
	movq	%rdi, -16(%rbp)
	movq	-16(%rbp), %rbx
	movq	%rbx, %rdi
	addq	$64, %rdi
	callq	_ZN5boost9exceptionD2Ev
	movq	%rbx, %rdi
	callq	_ZN5boost21thread_resource_errorD2Ev
	addq	$8, %rsp
	popq	%rbx
	popq	%rbp
	.cfi_def_cfa %rsp, 8
	retq
.Lfunc_end24:
	.size	_ZN5boost16exception_detail19error_info_injectorINS_21thread_resource_errorEED2Ev, .Lfunc_end24-_ZN5boost16exception_detail19error_info_injectorINS_21thread_resource_errorEED2Ev
	.cfi_endproc
                                        # -- End function
	.section	.text._ZN5boost9exceptionD2Ev,"axG",@progbits,_ZN5boost9exceptionD2Ev,comdat
	.weak	_ZN5boost9exceptionD2Ev # -- Begin function _ZN5boost9exceptionD2Ev
	.p2align	4, 0x90
	.type	_ZN5boost9exceptionD2Ev,@function
_ZN5boost9exceptionD2Ev:                # @_ZN5boost9exceptionD2Ev
	.cfi_startproc
# %bb.0:
	pushq	%rbp
	.cfi_def_cfa_offset 16
	.cfi_offset %rbp, -16
	movq	%rsp, %rbp
	.cfi_def_cfa_register %rbp
	subq	$16, %rsp
	movabsq	$_ZTVN5boost9exceptionE, %rax
	addq	$16, %rax
	movq	%rdi, -8(%rbp)
	movq	-8(%rbp), %rdi
	movq	%rax, (%rdi)
	addq	$8, %rdi
	callq	_ZN5boost16exception_detail12refcount_ptrINS0_20error_info_containerEED2Ev
	addq	$16, %rsp
	popq	%rbp
	.cfi_def_cfa %rsp, 8
	retq
.Lfunc_end25:
	.size	_ZN5boost9exceptionD2Ev, .Lfunc_end25-_ZN5boost9exceptionD2Ev
	.cfi_endproc
                                        # -- End function
	.section	.text._ZN5boost16exception_detail12refcount_ptrINS0_20error_info_containerEED2Ev,"axG",@progbits,_ZN5boost16exception_detail12refcount_ptrINS0_20error_info_containerEED2Ev,comdat
	.weak	_ZN5boost16exception_detail12refcount_ptrINS0_20error_info_containerEED2Ev # -- Begin function _ZN5boost16exception_detail12refcount_ptrINS0_20error_info_containerEED2Ev
	.p2align	4, 0x90
	.type	_ZN5boost16exception_detail12refcount_ptrINS0_20error_info_containerEED2Ev,@function
_ZN5boost16exception_detail12refcount_ptrINS0_20error_info_containerEED2Ev: # @_ZN5boost16exception_detail12refcount_ptrINS0_20error_info_containerEED2Ev
.Lfunc_begin3:
	.cfi_startproc
	.cfi_personality 3, __gxx_personality_v0
	.cfi_lsda 3, .Lexception3
# %bb.0:
	pushq	%rbp
	.cfi_def_cfa_offset 16
	.cfi_offset %rbp, -16
	movq	%rsp, %rbp
	.cfi_def_cfa_register %rbp
	subq	$16, %rsp
	movq	%rdi, -8(%rbp)
	movq	-8(%rbp), %rdi
.Ltmp24:
	callq	_ZN5boost16exception_detail12refcount_ptrINS0_20error_info_containerEE7releaseEv
.Ltmp25:
	jmp	.LBB26_1
.LBB26_1:
	addq	$16, %rsp
	popq	%rbp
	.cfi_def_cfa %rsp, 8
	retq
.LBB26_2:
	.cfi_def_cfa %rbp, 16
.Ltmp26:
                                        # kill: killed $rdx
	movq	%rax, %rdi
	callq	__clang_call_terminate
.Lfunc_end26:
	.size	_ZN5boost16exception_detail12refcount_ptrINS0_20error_info_containerEED2Ev, .Lfunc_end26-_ZN5boost16exception_detail12refcount_ptrINS0_20error_info_containerEED2Ev
	.cfi_endproc
	.section	.gcc_except_table,"a",@progbits
	.p2align	2
GCC_except_table26:
.Lexception3:
	.byte	255                     # @LPStart Encoding = omit
	.byte	3                       # @TType Encoding = udata4
	.uleb128 .Lttbase1-.Lttbaseref1
.Lttbaseref1:
	.byte	1                       # Call site Encoding = uleb128
	.uleb128 .Lcst_end3-.Lcst_begin3
.Lcst_begin3:
	.uleb128 .Ltmp24-.Lfunc_begin3  # >> Call Site 1 <<
	.uleb128 .Ltmp25-.Ltmp24        #   Call between .Ltmp24 and .Ltmp25
	.uleb128 .Ltmp26-.Lfunc_begin3  #     jumps to .Ltmp26
	.byte	1                       #   On action: 1
.Lcst_end3:
	.byte	1                       # >> Action Record 1 <<
                                        #   Catch TypeInfo 1
	.byte	0                       #   No further actions
	.p2align	2
                                        # >> Catch TypeInfos <<
	.long	0                       # TypeInfo 1
.Lttbase1:
	.p2align	2
                                        # -- End function
	.section	.text._ZN5boost16exception_detail12refcount_ptrINS0_20error_info_containerEE7releaseEv,"axG",@progbits,_ZN5boost16exception_detail12refcount_ptrINS0_20error_info_containerEE7releaseEv,comdat
	.weak	_ZN5boost16exception_detail12refcount_ptrINS0_20error_info_containerEE7releaseEv # -- Begin function _ZN5boost16exception_detail12refcount_ptrINS0_20error_info_containerEE7releaseEv
	.p2align	4, 0x90
	.type	_ZN5boost16exception_detail12refcount_ptrINS0_20error_info_containerEE7releaseEv,@function
_ZN5boost16exception_detail12refcount_ptrINS0_20error_info_containerEE7releaseEv: # @_ZN5boost16exception_detail12refcount_ptrINS0_20error_info_containerEE7releaseEv
	.cfi_startproc
# %bb.0:
	pushq	%rbp
	.cfi_def_cfa_offset 16
	.cfi_offset %rbp, -16
	movq	%rsp, %rbp
	.cfi_def_cfa_register %rbp
	pushq	%rbx
	pushq	%rax
	.cfi_offset %rbx, -24
	movq	%rdi, -16(%rbp)
	movq	-16(%rbp), %rbx
	cmpq	$0, (%rbx)
	je	.LBB27_3
# %bb.1:
	movq	(%rbx), %rdi
	movq	(%rdi), %rax
	callq	*32(%rax)
	testb	$1, %al
	jne	.LBB27_2
	jmp	.LBB27_3
.LBB27_2:
	movq	$0, (%rbx)
.LBB27_3:
	addq	$8, %rsp
	popq	%rbx
	popq	%rbp
	.cfi_def_cfa %rsp, 8
	retq
.Lfunc_end27:
	.size	_ZN5boost16exception_detail12refcount_ptrINS0_20error_info_containerEE7releaseEv, .Lfunc_end27-_ZN5boost16exception_detail12refcount_ptrINS0_20error_info_containerEE7releaseEv
	.cfi_endproc
                                        # -- End function
	.section	.text._ZN5boost16exception_detail10clone_implINS0_19error_info_injectorINS_21thread_resource_errorEEEED2Ev,"axG",@progbits,_ZN5boost16exception_detail10clone_implINS0_19error_info_injectorINS_21thread_resource_errorEEEED2Ev,comdat
	.weak	_ZN5boost16exception_detail10clone_implINS0_19error_info_injectorINS_21thread_resource_errorEEEED2Ev # -- Begin function _ZN5boost16exception_detail10clone_implINS0_19error_info_injectorINS_21thread_resource_errorEEEED2Ev
	.p2align	4, 0x90
	.type	_ZN5boost16exception_detail10clone_implINS0_19error_info_injectorINS_21thread_resource_errorEEEED2Ev,@function
_ZN5boost16exception_detail10clone_implINS0_19error_info_injectorINS_21thread_resource_errorEEEED2Ev: # @_ZN5boost16exception_detail10clone_implINS0_19error_info_injectorINS_21thread_resource_errorEEEED2Ev
	.cfi_startproc
# %bb.0:
	pushq	%rbp
	.cfi_def_cfa_offset 16
	.cfi_offset %rbp, -16
	movq	%rsp, %rbp
	.cfi_def_cfa_register %rbp
	subq	$16, %rsp
	movq	%rdi, -8(%rbp)
	movq	%rsi, -16(%rbp)
	movq	-8(%rbp), %rdi
	callq	_ZN5boost16exception_detail19error_info_injectorINS_21thread_resource_errorEED2Ev
	addq	$16, %rsp
	popq	%rbp
	.cfi_def_cfa %rsp, 8
	retq
.Lfunc_end28:
	.size	_ZN5boost16exception_detail10clone_implINS0_19error_info_injectorINS_21thread_resource_errorEEEED2Ev, .Lfunc_end28-_ZN5boost16exception_detail10clone_implINS0_19error_info_injectorINS_21thread_resource_errorEEEED2Ev
	.cfi_endproc
                                        # -- End function
	.section	.text._ZN5boost16exception_detail10clone_baseD2Ev,"axG",@progbits,_ZN5boost16exception_detail10clone_baseD2Ev,comdat
	.weak	_ZN5boost16exception_detail10clone_baseD2Ev # -- Begin function _ZN5boost16exception_detail10clone_baseD2Ev
	.p2align	4, 0x90
	.type	_ZN5boost16exception_detail10clone_baseD2Ev,@function
_ZN5boost16exception_detail10clone_baseD2Ev: # @_ZN5boost16exception_detail10clone_baseD2Ev
	.cfi_startproc
# %bb.0:
	pushq	%rbp
	.cfi_def_cfa_offset 16
	.cfi_offset %rbp, -16
	movq	%rsp, %rbp
	.cfi_def_cfa_register %rbp
	movq	%rdi, -8(%rbp)
	popq	%rbp
	.cfi_def_cfa %rsp, 8
	retq
.Lfunc_end29:
	.size	_ZN5boost16exception_detail10clone_baseD2Ev, .Lfunc_end29-_ZN5boost16exception_detail10clone_baseD2Ev
	.cfi_endproc
                                        # -- End function
	.section	.text._ZN5boost16exception_detail10clone_implINS0_19error_info_injectorINS_21thread_resource_errorEEEED0Ev,"axG",@progbits,_ZN5boost16exception_detail10clone_implINS0_19error_info_injectorINS_21thread_resource_errorEEEED0Ev,comdat
	.weak	_ZN5boost16exception_detail10clone_implINS0_19error_info_injectorINS_21thread_resource_errorEEEED0Ev # -- Begin function _ZN5boost16exception_detail10clone_implINS0_19error_info_injectorINS_21thread_resource_errorEEEED0Ev
	.p2align	4, 0x90
	.type	_ZN5boost16exception_detail10clone_implINS0_19error_info_injectorINS_21thread_resource_errorEEEED0Ev,@function
_ZN5boost16exception_detail10clone_implINS0_19error_info_injectorINS_21thread_resource_errorEEEED0Ev: # @_ZN5boost16exception_detail10clone_implINS0_19error_info_injectorINS_21thread_resource_errorEEEED0Ev
	.cfi_startproc
# %bb.0:
	pushq	%rbp
	.cfi_def_cfa_offset 16
	.cfi_offset %rbp, -16
	movq	%rsp, %rbp
	.cfi_def_cfa_register %rbp
	pushq	%rbx
	pushq	%rax
	.cfi_offset %rbx, -24
	movq	%rdi, -16(%rbp)
	movq	-16(%rbp), %rbx
	movq	%rbx, %rdi
	callq	_ZN5boost16exception_detail10clone_implINS0_19error_info_injectorINS_21thread_resource_errorEEEED1Ev
	movq	%rbx, %rdi
	callq	_ZdlPv
	addq	$8, %rsp
	popq	%rbx
	popq	%rbp
	.cfi_def_cfa %rsp, 8
	retq
.Lfunc_end30:
	.size	_ZN5boost16exception_detail10clone_implINS0_19error_info_injectorINS_21thread_resource_errorEEEED0Ev, .Lfunc_end30-_ZN5boost16exception_detail10clone_implINS0_19error_info_injectorINS_21thread_resource_errorEEEED0Ev
	.cfi_endproc
                                        # -- End function
	.section	.text._ZNK5boost16exception_detail10clone_implINS0_19error_info_injectorINS_21thread_resource_errorEEEE5cloneEv,"axG",@progbits,_ZNK5boost16exception_detail10clone_implINS0_19error_info_injectorINS_21thread_resource_errorEEEE5cloneEv,comdat
	.weak	_ZNK5boost16exception_detail10clone_implINS0_19error_info_injectorINS_21thread_resource_errorEEEE5cloneEv # -- Begin function _ZNK5boost16exception_detail10clone_implINS0_19error_info_injectorINS_21thread_resource_errorEEEE5cloneEv
	.p2align	4, 0x90
	.type	_ZNK5boost16exception_detail10clone_implINS0_19error_info_injectorINS_21thread_resource_errorEEEE5cloneEv,@function
_ZNK5boost16exception_detail10clone_implINS0_19error_info_injectorINS_21thread_resource_errorEEEE5cloneEv: # @_ZNK5boost16exception_detail10clone_implINS0_19error_info_injectorINS_21thread_resource_errorEEEE5cloneEv
.Lfunc_begin4:
	.cfi_startproc
	.cfi_personality 3, __gxx_personality_v0
	.cfi_lsda 3, .Lexception4
# %bb.0:
	pushq	%rbp
	.cfi_def_cfa_offset 16
	.cfi_offset %rbp, -16
	movq	%rsp, %rbp
	.cfi_def_cfa_register %rbp
	pushq	%r14
	pushq	%rbx
	subq	$32, %rsp
	.cfi_offset %rbx, -32
	.cfi_offset %r14, -24
	movq	%rdi, -32(%rbp)
	movq	-32(%rbp), %r14
	movl	$112, %edi
	callq	_Znwm
	movq	%rax, %rbx
.Ltmp27:
	movq	%rbx, %rdi
	movq	%r14, %rsi
	callq	_ZN5boost16exception_detail10clone_implINS0_19error_info_injectorINS_21thread_resource_errorEEEEC1ERKS5_NS5_9clone_tagE
.Ltmp28:
	jmp	.LBB31_1
.LBB31_1:
	xorl	%eax, %eax
	cmpq	$0, %rbx
	je	.LBB31_3
# %bb.2:
	movq	(%rbx), %rax
	movq	-24(%rax), %rax
	addq	%rax, %rbx
	movq	%rbx, %rax
.LBB31_3:
	addq	$32, %rsp
	popq	%rbx
	popq	%r14
	popq	%rbp
	.cfi_def_cfa %rsp, 8
	retq
.LBB31_4:
	.cfi_def_cfa %rbp, 16
.Ltmp29:
	movq	%rax, -24(%rbp)
	movl	%edx, -36(%rbp)
	movq	%rbx, %rdi
	callq	_ZdlPv
# %bb.5:
	movq	-24(%rbp), %rdi
	callq	_Unwind_Resume
.Lfunc_end31:
	.size	_ZNK5boost16exception_detail10clone_implINS0_19error_info_injectorINS_21thread_resource_errorEEEE5cloneEv, .Lfunc_end31-_ZNK5boost16exception_detail10clone_implINS0_19error_info_injectorINS_21thread_resource_errorEEEE5cloneEv
	.cfi_endproc
	.section	.gcc_except_table,"a",@progbits
	.p2align	2
GCC_except_table31:
.Lexception4:
	.byte	255                     # @LPStart Encoding = omit
	.byte	255                     # @TType Encoding = omit
	.byte	1                       # Call site Encoding = uleb128
	.uleb128 .Lcst_end4-.Lcst_begin4
.Lcst_begin4:
	.uleb128 .Lfunc_begin4-.Lfunc_begin4 # >> Call Site 1 <<
	.uleb128 .Ltmp27-.Lfunc_begin4  #   Call between .Lfunc_begin4 and .Ltmp27
	.byte	0                       #     has no landing pad
	.byte	0                       #   On action: cleanup
	.uleb128 .Ltmp27-.Lfunc_begin4  # >> Call Site 2 <<
	.uleb128 .Ltmp28-.Ltmp27        #   Call between .Ltmp27 and .Ltmp28
	.uleb128 .Ltmp29-.Lfunc_begin4  #     jumps to .Ltmp29
	.byte	0                       #   On action: cleanup
	.uleb128 .Ltmp28-.Lfunc_begin4  # >> Call Site 3 <<
	.uleb128 .Lfunc_end31-.Ltmp28   #   Call between .Ltmp28 and .Lfunc_end31
	.byte	0                       #     has no landing pad
	.byte	0                       #   On action: cleanup
.Lcst_end4:
	.p2align	2
                                        # -- End function
	.section	.text._ZNK5boost16exception_detail10clone_implINS0_19error_info_injectorINS_21thread_resource_errorEEEE7rethrowEv,"axG",@progbits,_ZNK5boost16exception_detail10clone_implINS0_19error_info_injectorINS_21thread_resource_errorEEEE7rethrowEv,comdat
	.weak	_ZNK5boost16exception_detail10clone_implINS0_19error_info_injectorINS_21thread_resource_errorEEEE7rethrowEv # -- Begin function _ZNK5boost16exception_detail10clone_implINS0_19error_info_injectorINS_21thread_resource_errorEEEE7rethrowEv
	.p2align	4, 0x90
	.type	_ZNK5boost16exception_detail10clone_implINS0_19error_info_injectorINS_21thread_resource_errorEEEE7rethrowEv,@function
_ZNK5boost16exception_detail10clone_implINS0_19error_info_injectorINS_21thread_resource_errorEEEE7rethrowEv: # @_ZNK5boost16exception_detail10clone_implINS0_19error_info_injectorINS_21thread_resource_errorEEEE7rethrowEv
.Lfunc_begin5:
	.cfi_startproc
	.cfi_personality 3, __gxx_personality_v0
	.cfi_lsda 3, .Lexception5
# %bb.0:
	pushq	%rbp
	.cfi_def_cfa_offset 16
	.cfi_offset %rbp, -16
	movq	%rsp, %rbp
	.cfi_def_cfa_register %rbp
	pushq	%r14
	pushq	%rbx
	subq	$32, %rsp
	.cfi_offset %rbx, -32
	.cfi_offset %r14, -24
	movq	%rdi, -32(%rbp)
	movq	-32(%rbp), %r14
	movl	$112, %edi
	callq	__cxa_allocate_exception
	movq	%rax, %rbx
.Ltmp30:
	movq	%rbx, %rdi
	movq	%r14, %rsi
	callq	_ZN5boost16exception_detail10clone_implINS0_19error_info_injectorINS_21thread_resource_errorEEEEC1ERKS5_
.Ltmp31:
	jmp	.LBB32_1
.LBB32_1:
	movabsq	$_ZTIN5boost16exception_detail10clone_implINS0_19error_info_injectorINS_21thread_resource_errorEEEEE, %rsi
	movabsq	$_ZN5boost16exception_detail10clone_implINS0_19error_info_injectorINS_21thread_resource_errorEEEED1Ev, %rdx
	movq	%rbx, %rdi
	callq	__cxa_throw
.LBB32_2:
.Ltmp32:
	movq	%rax, -24(%rbp)
	movl	%edx, -36(%rbp)
	movq	%rbx, %rdi
	callq	__cxa_free_exception
# %bb.3:
	movq	-24(%rbp), %rdi
	callq	_Unwind_Resume
.Lfunc_end32:
	.size	_ZNK5boost16exception_detail10clone_implINS0_19error_info_injectorINS_21thread_resource_errorEEEE7rethrowEv, .Lfunc_end32-_ZNK5boost16exception_detail10clone_implINS0_19error_info_injectorINS_21thread_resource_errorEEEE7rethrowEv
	.cfi_endproc
	.section	.gcc_except_table,"a",@progbits
	.p2align	2
GCC_except_table32:
.Lexception5:
	.byte	255                     # @LPStart Encoding = omit
	.byte	255                     # @TType Encoding = omit
	.byte	1                       # Call site Encoding = uleb128
	.uleb128 .Lcst_end5-.Lcst_begin5
.Lcst_begin5:
	.uleb128 .Lfunc_begin5-.Lfunc_begin5 # >> Call Site 1 <<
	.uleb128 .Ltmp30-.Lfunc_begin5  #   Call between .Lfunc_begin5 and .Ltmp30
	.byte	0                       #     has no landing pad
	.byte	0                       #   On action: cleanup
	.uleb128 .Ltmp30-.Lfunc_begin5  # >> Call Site 2 <<
	.uleb128 .Ltmp31-.Ltmp30        #   Call between .Ltmp30 and .Ltmp31
	.uleb128 .Ltmp32-.Lfunc_begin5  #     jumps to .Ltmp32
	.byte	0                       #   On action: cleanup
	.uleb128 .Ltmp31-.Lfunc_begin5  # >> Call Site 3 <<
	.uleb128 .Lfunc_end32-.Ltmp31   #   Call between .Ltmp31 and .Lfunc_end32
	.byte	0                       #     has no landing pad
	.byte	0                       #   On action: cleanup
.Lcst_end5:
	.p2align	2
                                        # -- End function
	.section	.text._ZThn64_N5boost16exception_detail10clone_implINS0_19error_info_injectorINS_21thread_resource_errorEEEED1Ev,"axG",@progbits,_ZThn64_N5boost16exception_detail10clone_implINS0_19error_info_injectorINS_21thread_resource_errorEEEED1Ev,comdat
	.weak	_ZThn64_N5boost16exception_detail10clone_implINS0_19error_info_injectorINS_21thread_resource_errorEEEED1Ev # -- Begin function _ZThn64_N5boost16exception_detail10clone_implINS0_19error_info_injectorINS_21thread_resource_errorEEEED1Ev
	.p2align	4, 0x90
	.type	_ZThn64_N5boost16exception_detail10clone_implINS0_19error_info_injectorINS_21thread_resource_errorEEEED1Ev,@function
_ZThn64_N5boost16exception_detail10clone_implINS0_19error_info_injectorINS_21thread_resource_errorEEEED1Ev: # @_ZThn64_N5boost16exception_detail10clone_implINS0_19error_info_injectorINS_21thread_resource_errorEEEED1Ev
	.cfi_startproc
# %bb.0:
	pushq	%rbp
	.cfi_def_cfa_offset 16
	.cfi_offset %rbp, -16
	movq	%rsp, %rbp
	.cfi_def_cfa_register %rbp
	movq	%rdi, -8(%rbp)
	movq	-8(%rbp), %rdi
	addq	$-64, %rdi
	popq	%rbp
	.cfi_def_cfa %rsp, 8
	jmp	_ZN5boost16exception_detail10clone_implINS0_19error_info_injectorINS_21thread_resource_errorEEEED1Ev # TAILCALL
.Lfunc_end33:
	.size	_ZThn64_N5boost16exception_detail10clone_implINS0_19error_info_injectorINS_21thread_resource_errorEEEED1Ev, .Lfunc_end33-_ZThn64_N5boost16exception_detail10clone_implINS0_19error_info_injectorINS_21thread_resource_errorEEEED1Ev
	.cfi_endproc
                                        # -- End function
	.section	.text._ZThn64_N5boost16exception_detail10clone_implINS0_19error_info_injectorINS_21thread_resource_errorEEEED0Ev,"axG",@progbits,_ZThn64_N5boost16exception_detail10clone_implINS0_19error_info_injectorINS_21thread_resource_errorEEEED0Ev,comdat
	.weak	_ZThn64_N5boost16exception_detail10clone_implINS0_19error_info_injectorINS_21thread_resource_errorEEEED0Ev # -- Begin function _ZThn64_N5boost16exception_detail10clone_implINS0_19error_info_injectorINS_21thread_resource_errorEEEED0Ev
	.p2align	4, 0x90
	.type	_ZThn64_N5boost16exception_detail10clone_implINS0_19error_info_injectorINS_21thread_resource_errorEEEED0Ev,@function
_ZThn64_N5boost16exception_detail10clone_implINS0_19error_info_injectorINS_21thread_resource_errorEEEED0Ev: # @_ZThn64_N5boost16exception_detail10clone_implINS0_19error_info_injectorINS_21thread_resource_errorEEEED0Ev
	.cfi_startproc
# %bb.0:
	pushq	%rbp
	.cfi_def_cfa_offset 16
	.cfi_offset %rbp, -16
	movq	%rsp, %rbp
	.cfi_def_cfa_register %rbp
	movq	%rdi, -8(%rbp)
	movq	-8(%rbp), %rdi
	addq	$-64, %rdi
	popq	%rbp
	.cfi_def_cfa %rsp, 8
	jmp	_ZN5boost16exception_detail10clone_implINS0_19error_info_injectorINS_21thread_resource_errorEEEED0Ev # TAILCALL
.Lfunc_end34:
	.size	_ZThn64_N5boost16exception_detail10clone_implINS0_19error_info_injectorINS_21thread_resource_errorEEEED0Ev, .Lfunc_end34-_ZThn64_N5boost16exception_detail10clone_implINS0_19error_info_injectorINS_21thread_resource_errorEEEED0Ev
	.cfi_endproc
                                        # -- End function
	.section	.text._ZTv0_n24_NK5boost16exception_detail10clone_implINS0_19error_info_injectorINS_21thread_resource_errorEEEE5cloneEv,"axG",@progbits,_ZTv0_n24_NK5boost16exception_detail10clone_implINS0_19error_info_injectorINS_21thread_resource_errorEEEE5cloneEv,comdat
	.weak	_ZTv0_n24_NK5boost16exception_detail10clone_implINS0_19error_info_injectorINS_21thread_resource_errorEEEE5cloneEv # -- Begin function _ZTv0_n24_NK5boost16exception_detail10clone_implINS0_19error_info_injectorINS_21thread_resource_errorEEEE5cloneEv
	.p2align	4, 0x90
	.type	_ZTv0_n24_NK5boost16exception_detail10clone_implINS0_19error_info_injectorINS_21thread_resource_errorEEEE5cloneEv,@function
_ZTv0_n24_NK5boost16exception_detail10clone_implINS0_19error_info_injectorINS_21thread_resource_errorEEEE5cloneEv: # @_ZTv0_n24_NK5boost16exception_detail10clone_implINS0_19error_info_injectorINS_21thread_resource_errorEEEE5cloneEv
	.cfi_startproc
# %bb.0:
	pushq	%rbp
	.cfi_def_cfa_offset 16
	.cfi_offset %rbp, -16
	movq	%rsp, %rbp
	.cfi_def_cfa_register %rbp
	movq	%rdi, -8(%rbp)
	movq	-8(%rbp), %rdi
	movq	(%rdi), %rax
	movq	-24(%rax), %rax
	addq	%rax, %rdi
	popq	%rbp
	.cfi_def_cfa %rsp, 8
	jmp	_ZNK5boost16exception_detail10clone_implINS0_19error_info_injectorINS_21thread_resource_errorEEEE5cloneEv # TAILCALL
.Lfunc_end35:
	.size	_ZTv0_n24_NK5boost16exception_detail10clone_implINS0_19error_info_injectorINS_21thread_resource_errorEEEE5cloneEv, .Lfunc_end35-_ZTv0_n24_NK5boost16exception_detail10clone_implINS0_19error_info_injectorINS_21thread_resource_errorEEEE5cloneEv
	.cfi_endproc
                                        # -- End function
	.section	.text._ZTv0_n32_NK5boost16exception_detail10clone_implINS0_19error_info_injectorINS_21thread_resource_errorEEEE7rethrowEv,"axG",@progbits,_ZTv0_n32_NK5boost16exception_detail10clone_implINS0_19error_info_injectorINS_21thread_resource_errorEEEE7rethrowEv,comdat
	.weak	_ZTv0_n32_NK5boost16exception_detail10clone_implINS0_19error_info_injectorINS_21thread_resource_errorEEEE7rethrowEv # -- Begin function _ZTv0_n32_NK5boost16exception_detail10clone_implINS0_19error_info_injectorINS_21thread_resource_errorEEEE7rethrowEv
	.p2align	4, 0x90
	.type	_ZTv0_n32_NK5boost16exception_detail10clone_implINS0_19error_info_injectorINS_21thread_resource_errorEEEE7rethrowEv,@function
_ZTv0_n32_NK5boost16exception_detail10clone_implINS0_19error_info_injectorINS_21thread_resource_errorEEEE7rethrowEv: # @_ZTv0_n32_NK5boost16exception_detail10clone_implINS0_19error_info_injectorINS_21thread_resource_errorEEEE7rethrowEv
	.cfi_startproc
# %bb.0:
	pushq	%rbp
	.cfi_def_cfa_offset 16
	.cfi_offset %rbp, -16
	movq	%rsp, %rbp
	.cfi_def_cfa_register %rbp
	movq	%rdi, -8(%rbp)
	movq	-8(%rbp), %rdi
	movq	(%rdi), %rax
	movq	-32(%rax), %rax
	addq	%rax, %rdi
	popq	%rbp
	.cfi_def_cfa %rsp, 8
	jmp	_ZNK5boost16exception_detail10clone_implINS0_19error_info_injectorINS_21thread_resource_errorEEEE7rethrowEv # TAILCALL
.Lfunc_end36:
	.size	_ZTv0_n32_NK5boost16exception_detail10clone_implINS0_19error_info_injectorINS_21thread_resource_errorEEEE7rethrowEv, .Lfunc_end36-_ZTv0_n32_NK5boost16exception_detail10clone_implINS0_19error_info_injectorINS_21thread_resource_errorEEEE7rethrowEv
	.cfi_endproc
                                        # -- End function
	.section	.text._ZTv0_n40_N5boost16exception_detail10clone_implINS0_19error_info_injectorINS_21thread_resource_errorEEEED1Ev,"axG",@progbits,_ZTv0_n40_N5boost16exception_detail10clone_implINS0_19error_info_injectorINS_21thread_resource_errorEEEED1Ev,comdat
	.weak	_ZTv0_n40_N5boost16exception_detail10clone_implINS0_19error_info_injectorINS_21thread_resource_errorEEEED1Ev # -- Begin function _ZTv0_n40_N5boost16exception_detail10clone_implINS0_19error_info_injectorINS_21thread_resource_errorEEEED1Ev
	.p2align	4, 0x90
	.type	_ZTv0_n40_N5boost16exception_detail10clone_implINS0_19error_info_injectorINS_21thread_resource_errorEEEED1Ev,@function
_ZTv0_n40_N5boost16exception_detail10clone_implINS0_19error_info_injectorINS_21thread_resource_errorEEEED1Ev: # @_ZTv0_n40_N5boost16exception_detail10clone_implINS0_19error_info_injectorINS_21thread_resource_errorEEEED1Ev
	.cfi_startproc
# %bb.0:
	pushq	%rbp
	.cfi_def_cfa_offset 16
	.cfi_offset %rbp, -16
	movq	%rsp, %rbp
	.cfi_def_cfa_register %rbp
	movq	%rdi, -8(%rbp)
	movq	-8(%rbp), %rdi
	movq	(%rdi), %rax
	movq	-40(%rax), %rax
	addq	%rax, %rdi
	popq	%rbp
	.cfi_def_cfa %rsp, 8
	jmp	_ZN5boost16exception_detail10clone_implINS0_19error_info_injectorINS_21thread_resource_errorEEEED1Ev # TAILCALL
.Lfunc_end37:
	.size	_ZTv0_n40_N5boost16exception_detail10clone_implINS0_19error_info_injectorINS_21thread_resource_errorEEEED1Ev, .Lfunc_end37-_ZTv0_n40_N5boost16exception_detail10clone_implINS0_19error_info_injectorINS_21thread_resource_errorEEEED1Ev
	.cfi_endproc
                                        # -- End function
	.section	.text._ZTv0_n40_N5boost16exception_detail10clone_implINS0_19error_info_injectorINS_21thread_resource_errorEEEED0Ev,"axG",@progbits,_ZTv0_n40_N5boost16exception_detail10clone_implINS0_19error_info_injectorINS_21thread_resource_errorEEEED0Ev,comdat
	.weak	_ZTv0_n40_N5boost16exception_detail10clone_implINS0_19error_info_injectorINS_21thread_resource_errorEEEED0Ev # -- Begin function _ZTv0_n40_N5boost16exception_detail10clone_implINS0_19error_info_injectorINS_21thread_resource_errorEEEED0Ev
	.p2align	4, 0x90
	.type	_ZTv0_n40_N5boost16exception_detail10clone_implINS0_19error_info_injectorINS_21thread_resource_errorEEEED0Ev,@function
_ZTv0_n40_N5boost16exception_detail10clone_implINS0_19error_info_injectorINS_21thread_resource_errorEEEED0Ev: # @_ZTv0_n40_N5boost16exception_detail10clone_implINS0_19error_info_injectorINS_21thread_resource_errorEEEED0Ev
	.cfi_startproc
# %bb.0:
	pushq	%rbp
	.cfi_def_cfa_offset 16
	.cfi_offset %rbp, -16
	movq	%rsp, %rbp
	.cfi_def_cfa_register %rbp
	movq	%rdi, -8(%rbp)
	movq	-8(%rbp), %rdi
	movq	(%rdi), %rax
	movq	-40(%rax), %rax
	addq	%rax, %rdi
	popq	%rbp
	.cfi_def_cfa %rsp, 8
	jmp	_ZN5boost16exception_detail10clone_implINS0_19error_info_injectorINS_21thread_resource_errorEEEED0Ev # TAILCALL
.Lfunc_end38:
	.size	_ZTv0_n40_N5boost16exception_detail10clone_implINS0_19error_info_injectorINS_21thread_resource_errorEEEED0Ev, .Lfunc_end38-_ZTv0_n40_N5boost16exception_detail10clone_implINS0_19error_info_injectorINS_21thread_resource_errorEEEED0Ev
	.cfi_endproc
                                        # -- End function
	.section	.text._ZN5boost16exception_detail10clone_implINS0_19error_info_injectorINS_21thread_resource_errorEEEEC1ERKS5_,"axG",@progbits,_ZN5boost16exception_detail10clone_implINS0_19error_info_injectorINS_21thread_resource_errorEEEEC1ERKS5_,comdat
	.weak	_ZN5boost16exception_detail10clone_implINS0_19error_info_injectorINS_21thread_resource_errorEEEEC1ERKS5_ # -- Begin function _ZN5boost16exception_detail10clone_implINS0_19error_info_injectorINS_21thread_resource_errorEEEEC1ERKS5_
	.p2align	4, 0x90
	.type	_ZN5boost16exception_detail10clone_implINS0_19error_info_injectorINS_21thread_resource_errorEEEEC1ERKS5_,@function
_ZN5boost16exception_detail10clone_implINS0_19error_info_injectorINS_21thread_resource_errorEEEEC1ERKS5_: # @_ZN5boost16exception_detail10clone_implINS0_19error_info_injectorINS_21thread_resource_errorEEEEC1ERKS5_
.Lfunc_begin6:
	.cfi_startproc
	.cfi_personality 3, __gxx_personality_v0
	.cfi_lsda 3, .Lexception6
# %bb.0:
	pushq	%rbp
	.cfi_def_cfa_offset 16
	.cfi_offset %rbp, -16
	movq	%rsp, %rbp
	.cfi_def_cfa_register %rbp
	pushq	%rbx
	subq	$40, %rsp
	.cfi_offset %rbx, -24
	movq	%rdi, -32(%rbp)
	movq	%rsi, -16(%rbp)
	movq	-32(%rbp), %rbx
	movq	%rbx, %rdi
	addq	$104, %rdi
	movq	-16(%rbp), %rsi
	movq	(%rsi), %rax
	movq	-24(%rax), %rax
	addq	%rax, %rsi
	callq	_ZN5boost16exception_detail10clone_baseC2ERKS1_
	movq	-16(%rbp), %rsi
.Ltmp33:
	movq	%rbx, %rdi
	callq	_ZN5boost16exception_detail19error_info_injectorINS_21thread_resource_errorEEC2ERKS3_
.Ltmp34:
	jmp	.LBB39_1
.LBB39_1:
	movabsq	$_ZTVN5boost16exception_detail10clone_implINS0_19error_info_injectorINS_21thread_resource_errorEEEEE, %rax
	movq	%rax, %rcx
	addq	$136, %rcx
	movq	%rax, %rdx
	addq	$80, %rdx
	addq	$24, %rax
	movq	%rax, (%rbx)
	movq	%rdx, 64(%rbx)
	movq	%rcx, 104(%rbx)
	addq	$40, %rsp
	popq	%rbx
	popq	%rbp
	.cfi_def_cfa %rsp, 8
	retq
.LBB39_2:
	.cfi_def_cfa %rbp, 16
.Ltmp35:
	movq	%rax, -24(%rbp)
	movl	%edx, -36(%rbp)
	addq	$104, %rbx
	movq	%rbx, %rdi
	callq	_ZN5boost16exception_detail10clone_baseD2Ev
# %bb.3:
	movq	-24(%rbp), %rdi
	callq	_Unwind_Resume
.Lfunc_end39:
	.size	_ZN5boost16exception_detail10clone_implINS0_19error_info_injectorINS_21thread_resource_errorEEEEC1ERKS5_, .Lfunc_end39-_ZN5boost16exception_detail10clone_implINS0_19error_info_injectorINS_21thread_resource_errorEEEEC1ERKS5_
	.cfi_endproc
	.section	.gcc_except_table,"a",@progbits
	.p2align	2
GCC_except_table39:
.Lexception6:
	.byte	255                     # @LPStart Encoding = omit
	.byte	255                     # @TType Encoding = omit
	.byte	1                       # Call site Encoding = uleb128
	.uleb128 .Lcst_end6-.Lcst_begin6
.Lcst_begin6:
	.uleb128 .Ltmp33-.Lfunc_begin6  # >> Call Site 1 <<
	.uleb128 .Ltmp34-.Ltmp33        #   Call between .Ltmp33 and .Ltmp34
	.uleb128 .Ltmp35-.Lfunc_begin6  #     jumps to .Ltmp35
	.byte	0                       #   On action: cleanup
	.uleb128 .Ltmp34-.Lfunc_begin6  # >> Call Site 2 <<
	.uleb128 .Lfunc_end39-.Ltmp34   #   Call between .Ltmp34 and .Lfunc_end39
	.byte	0                       #     has no landing pad
	.byte	0                       #   On action: cleanup
.Lcst_end6:
	.p2align	2
                                        # -- End function
	.section	.text._ZN5boost16exception_detail10clone_baseC2ERKS1_,"axG",@progbits,_ZN5boost16exception_detail10clone_baseC2ERKS1_,comdat
	.weak	_ZN5boost16exception_detail10clone_baseC2ERKS1_ # -- Begin function _ZN5boost16exception_detail10clone_baseC2ERKS1_
	.p2align	4, 0x90
	.type	_ZN5boost16exception_detail10clone_baseC2ERKS1_,@function
_ZN5boost16exception_detail10clone_baseC2ERKS1_: # @_ZN5boost16exception_detail10clone_baseC2ERKS1_
	.cfi_startproc
# %bb.0:
	pushq	%rbp
	.cfi_def_cfa_offset 16
	.cfi_offset %rbp, -16
	movq	%rsp, %rbp
	.cfi_def_cfa_register %rbp
	movabsq	$_ZTVN5boost16exception_detail10clone_baseE, %rax
	addq	$16, %rax
	movq	%rdi, -8(%rbp)
	movq	%rsi, -16(%rbp)
	movq	-8(%rbp), %rcx
	movq	%rax, (%rcx)
	popq	%rbp
	.cfi_def_cfa %rsp, 8
	retq
.Lfunc_end40:
	.size	_ZN5boost16exception_detail10clone_baseC2ERKS1_, .Lfunc_end40-_ZN5boost16exception_detail10clone_baseC2ERKS1_
	.cfi_endproc
                                        # -- End function
	.section	.text._ZN5boost16exception_detail19error_info_injectorINS_21thread_resource_errorEEC2ERKS3_,"axG",@progbits,_ZN5boost16exception_detail19error_info_injectorINS_21thread_resource_errorEEC2ERKS3_,comdat
	.weak	_ZN5boost16exception_detail19error_info_injectorINS_21thread_resource_errorEEC2ERKS3_ # -- Begin function _ZN5boost16exception_detail19error_info_injectorINS_21thread_resource_errorEEC2ERKS3_
	.p2align	4, 0x90
	.type	_ZN5boost16exception_detail19error_info_injectorINS_21thread_resource_errorEEC2ERKS3_,@function
_ZN5boost16exception_detail19error_info_injectorINS_21thread_resource_errorEEC2ERKS3_: # @_ZN5boost16exception_detail19error_info_injectorINS_21thread_resource_errorEEC2ERKS3_
.Lfunc_begin7:
	.cfi_startproc
	.cfi_personality 3, __gxx_personality_v0
	.cfi_lsda 3, .Lexception7
# %bb.0:
	pushq	%rbp
	.cfi_def_cfa_offset 16
	.cfi_offset %rbp, -16
	movq	%rsp, %rbp
	.cfi_def_cfa_register %rbp
	pushq	%rbx
	subq	$40, %rsp
	.cfi_offset %rbx, -24
	movq	%rdi, -32(%rbp)
	movq	%rsi, -16(%rbp)
	movq	-32(%rbp), %rbx
	movq	-16(%rbp), %rsi
	movq	%rbx, %rdi
	callq	_ZN5boost21thread_resource_errorC2ERKS0_
	movq	%rbx, %rdi
	addq	$64, %rdi
	movq	-16(%rbp), %rsi
	addq	$64, %rsi
.Ltmp36:
	callq	_ZN5boost9exceptionC2ERKS0_
.Ltmp37:
	jmp	.LBB41_1
.LBB41_1:
	movabsq	$_ZTVN5boost16exception_detail19error_info_injectorINS_21thread_resource_errorEEE, %rax
	movq	%rax, %rcx
	addq	$56, %rcx
	addq	$16, %rax
	movq	%rax, (%rbx)
	movq	%rcx, 64(%rbx)
	addq	$40, %rsp
	popq	%rbx
	popq	%rbp
	.cfi_def_cfa %rsp, 8
	retq
.LBB41_2:
	.cfi_def_cfa %rbp, 16
.Ltmp38:
	movq	%rax, -24(%rbp)
	movl	%edx, -36(%rbp)
	movq	%rbx, %rdi
	callq	_ZN5boost21thread_resource_errorD2Ev
# %bb.3:
	movq	-24(%rbp), %rdi
	callq	_Unwind_Resume
.Lfunc_end41:
	.size	_ZN5boost16exception_detail19error_info_injectorINS_21thread_resource_errorEEC2ERKS3_, .Lfunc_end41-_ZN5boost16exception_detail19error_info_injectorINS_21thread_resource_errorEEC2ERKS3_
	.cfi_endproc
	.section	.gcc_except_table,"a",@progbits
	.p2align	2
GCC_except_table41:
.Lexception7:
	.byte	255                     # @LPStart Encoding = omit
	.byte	255                     # @TType Encoding = omit
	.byte	1                       # Call site Encoding = uleb128
	.uleb128 .Lcst_end7-.Lcst_begin7
.Lcst_begin7:
	.uleb128 .Lfunc_begin7-.Lfunc_begin7 # >> Call Site 1 <<
	.uleb128 .Ltmp36-.Lfunc_begin7  #   Call between .Lfunc_begin7 and .Ltmp36
	.byte	0                       #     has no landing pad
	.byte	0                       #   On action: cleanup
	.uleb128 .Ltmp36-.Lfunc_begin7  # >> Call Site 2 <<
	.uleb128 .Ltmp37-.Ltmp36        #   Call between .Ltmp36 and .Ltmp37
	.uleb128 .Ltmp38-.Lfunc_begin7  #     jumps to .Ltmp38
	.byte	0                       #   On action: cleanup
	.uleb128 .Ltmp37-.Lfunc_begin7  # >> Call Site 3 <<
	.uleb128 .Lfunc_end41-.Ltmp37   #   Call between .Ltmp37 and .Lfunc_end41
	.byte	0                       #     has no landing pad
	.byte	0                       #   On action: cleanup
.Lcst_end7:
	.p2align	2
                                        # -- End function
	.section	.text._ZN5boost21thread_resource_errorC2ERKS0_,"axG",@progbits,_ZN5boost21thread_resource_errorC2ERKS0_,comdat
	.weak	_ZN5boost21thread_resource_errorC2ERKS0_ # -- Begin function _ZN5boost21thread_resource_errorC2ERKS0_
	.p2align	4, 0x90
	.type	_ZN5boost21thread_resource_errorC2ERKS0_,@function
_ZN5boost21thread_resource_errorC2ERKS0_: # @_ZN5boost21thread_resource_errorC2ERKS0_
	.cfi_startproc
# %bb.0:
	pushq	%rbp
	.cfi_def_cfa_offset 16
	.cfi_offset %rbp, -16
	movq	%rsp, %rbp
	.cfi_def_cfa_register %rbp
	pushq	%rbx
	subq	$24, %rsp
	.cfi_offset %rbx, -24
	movq	%rdi, -24(%rbp)
	movq	%rsi, -16(%rbp)
	movq	-24(%rbp), %rbx
	movq	-16(%rbp), %rsi
	movq	%rbx, %rdi
	callq	_ZN5boost16thread_exceptionC2ERKS0_
	movabsq	$_ZTVN5boost21thread_resource_errorE, %rax
	addq	$16, %rax
	movq	%rax, (%rbx)
	addq	$24, %rsp
	popq	%rbx
	popq	%rbp
	.cfi_def_cfa %rsp, 8
	retq
.Lfunc_end42:
	.size	_ZN5boost21thread_resource_errorC2ERKS0_, .Lfunc_end42-_ZN5boost21thread_resource_errorC2ERKS0_
	.cfi_endproc
                                        # -- End function
	.section	.text._ZN5boost9exceptionC2ERKS0_,"axG",@progbits,_ZN5boost9exceptionC2ERKS0_,comdat
	.weak	_ZN5boost9exceptionC2ERKS0_ # -- Begin function _ZN5boost9exceptionC2ERKS0_
	.p2align	4, 0x90
	.type	_ZN5boost9exceptionC2ERKS0_,@function
_ZN5boost9exceptionC2ERKS0_:            # @_ZN5boost9exceptionC2ERKS0_
	.cfi_startproc
# %bb.0:
	pushq	%rbp
	.cfi_def_cfa_offset 16
	.cfi_offset %rbp, -16
	movq	%rsp, %rbp
	.cfi_def_cfa_register %rbp
	pushq	%rbx
	subq	$24, %rsp
	.cfi_offset %rbx, -24
	movabsq	$_ZTVN5boost9exceptionE, %rax
	addq	$16, %rax
	movq	%rdi, -24(%rbp)
	movq	%rsi, -16(%rbp)
	movq	-24(%rbp), %rbx
	movq	%rax, (%rbx)
	movq	%rbx, %rdi
	addq	$8, %rdi
	movq	-16(%rbp), %rsi
	addq	$8, %rsi
	callq	_ZN5boost16exception_detail12refcount_ptrINS0_20error_info_containerEEC2ERKS3_
	movq	-16(%rbp), %rax
	movq	16(%rax), %rcx
	movq	%rcx, 16(%rbx)
	movq	24(%rax), %rcx
	movq	%rcx, 24(%rbx)
	movl	32(%rax), %eax
	movl	%eax, 32(%rbx)
	addq	$24, %rsp
	popq	%rbx
	popq	%rbp
	.cfi_def_cfa %rsp, 8
	retq
.Lfunc_end43:
	.size	_ZN5boost9exceptionC2ERKS0_, .Lfunc_end43-_ZN5boost9exceptionC2ERKS0_
	.cfi_endproc
                                        # -- End function
	.section	.text._ZN5boost16exception_detail19error_info_injectorINS_21thread_resource_errorEED0Ev,"axG",@progbits,_ZN5boost16exception_detail19error_info_injectorINS_21thread_resource_errorEED0Ev,comdat
	.weak	_ZN5boost16exception_detail19error_info_injectorINS_21thread_resource_errorEED0Ev # -- Begin function _ZN5boost16exception_detail19error_info_injectorINS_21thread_resource_errorEED0Ev
	.p2align	4, 0x90
	.type	_ZN5boost16exception_detail19error_info_injectorINS_21thread_resource_errorEED0Ev,@function
_ZN5boost16exception_detail19error_info_injectorINS_21thread_resource_errorEED0Ev: # @_ZN5boost16exception_detail19error_info_injectorINS_21thread_resource_errorEED0Ev
	.cfi_startproc
# %bb.0:
	pushq	%rbp
	.cfi_def_cfa_offset 16
	.cfi_offset %rbp, -16
	movq	%rsp, %rbp
	.cfi_def_cfa_register %rbp
	pushq	%rbx
	pushq	%rax
	.cfi_offset %rbx, -24
	movq	%rdi, -16(%rbp)
	movq	-16(%rbp), %rbx
	movq	%rbx, %rdi
	callq	_ZN5boost16exception_detail19error_info_injectorINS_21thread_resource_errorEED2Ev
	movq	%rbx, %rdi
	callq	_ZdlPv
	addq	$8, %rsp
	popq	%rbx
	popq	%rbp
	.cfi_def_cfa %rsp, 8
	retq
.Lfunc_end44:
	.size	_ZN5boost16exception_detail19error_info_injectorINS_21thread_resource_errorEED0Ev, .Lfunc_end44-_ZN5boost16exception_detail19error_info_injectorINS_21thread_resource_errorEED0Ev
	.cfi_endproc
                                        # -- End function
	.section	.text._ZThn64_N5boost16exception_detail19error_info_injectorINS_21thread_resource_errorEED1Ev,"axG",@progbits,_ZThn64_N5boost16exception_detail19error_info_injectorINS_21thread_resource_errorEED1Ev,comdat
	.weak	_ZThn64_N5boost16exception_detail19error_info_injectorINS_21thread_resource_errorEED1Ev # -- Begin function _ZThn64_N5boost16exception_detail19error_info_injectorINS_21thread_resource_errorEED1Ev
	.p2align	4, 0x90
	.type	_ZThn64_N5boost16exception_detail19error_info_injectorINS_21thread_resource_errorEED1Ev,@function
_ZThn64_N5boost16exception_detail19error_info_injectorINS_21thread_resource_errorEED1Ev: # @_ZThn64_N5boost16exception_detail19error_info_injectorINS_21thread_resource_errorEED1Ev
	.cfi_startproc
# %bb.0:
	pushq	%rbp
	.cfi_def_cfa_offset 16
	.cfi_offset %rbp, -16
	movq	%rsp, %rbp
	.cfi_def_cfa_register %rbp
	movq	%rdi, -8(%rbp)
	movq	-8(%rbp), %rdi
	addq	$-64, %rdi
	popq	%rbp
	.cfi_def_cfa %rsp, 8
	jmp	_ZN5boost16exception_detail19error_info_injectorINS_21thread_resource_errorEED2Ev # TAILCALL
.Lfunc_end45:
	.size	_ZThn64_N5boost16exception_detail19error_info_injectorINS_21thread_resource_errorEED1Ev, .Lfunc_end45-_ZThn64_N5boost16exception_detail19error_info_injectorINS_21thread_resource_errorEED1Ev
	.cfi_endproc
                                        # -- End function
	.section	.text._ZThn64_N5boost16exception_detail19error_info_injectorINS_21thread_resource_errorEED0Ev,"axG",@progbits,_ZThn64_N5boost16exception_detail19error_info_injectorINS_21thread_resource_errorEED0Ev,comdat
	.weak	_ZThn64_N5boost16exception_detail19error_info_injectorINS_21thread_resource_errorEED0Ev # -- Begin function _ZThn64_N5boost16exception_detail19error_info_injectorINS_21thread_resource_errorEED0Ev
	.p2align	4, 0x90
	.type	_ZThn64_N5boost16exception_detail19error_info_injectorINS_21thread_resource_errorEED0Ev,@function
_ZThn64_N5boost16exception_detail19error_info_injectorINS_21thread_resource_errorEED0Ev: # @_ZThn64_N5boost16exception_detail19error_info_injectorINS_21thread_resource_errorEED0Ev
	.cfi_startproc
# %bb.0:
	pushq	%rbp
	.cfi_def_cfa_offset 16
	.cfi_offset %rbp, -16
	movq	%rsp, %rbp
	.cfi_def_cfa_register %rbp
	movq	%rdi, -8(%rbp)
	movq	-8(%rbp), %rdi
	addq	$-64, %rdi
	popq	%rbp
	.cfi_def_cfa %rsp, 8
	jmp	_ZN5boost16exception_detail19error_info_injectorINS_21thread_resource_errorEED0Ev # TAILCALL
.Lfunc_end46:
	.size	_ZThn64_N5boost16exception_detail19error_info_injectorINS_21thread_resource_errorEED0Ev, .Lfunc_end46-_ZThn64_N5boost16exception_detail19error_info_injectorINS_21thread_resource_errorEED0Ev
	.cfi_endproc
                                        # -- End function
	.section	.text._ZN5boost16exception_detail12refcount_ptrINS0_20error_info_containerEEC2ERKS3_,"axG",@progbits,_ZN5boost16exception_detail12refcount_ptrINS0_20error_info_containerEEC2ERKS3_,comdat
	.weak	_ZN5boost16exception_detail12refcount_ptrINS0_20error_info_containerEEC2ERKS3_ # -- Begin function _ZN5boost16exception_detail12refcount_ptrINS0_20error_info_containerEEC2ERKS3_
	.p2align	4, 0x90
	.type	_ZN5boost16exception_detail12refcount_ptrINS0_20error_info_containerEEC2ERKS3_,@function
_ZN5boost16exception_detail12refcount_ptrINS0_20error_info_containerEEC2ERKS3_: # @_ZN5boost16exception_detail12refcount_ptrINS0_20error_info_containerEEC2ERKS3_
	.cfi_startproc
# %bb.0:
	pushq	%rbp
	.cfi_def_cfa_offset 16
	.cfi_offset %rbp, -16
	movq	%rsp, %rbp
	.cfi_def_cfa_register %rbp
	subq	$16, %rsp
	movq	%rdi, -16(%rbp)
	movq	%rsi, -8(%rbp)
	movq	-16(%rbp), %rdi
	movq	-8(%rbp), %rax
	movq	(%rax), %rax
	movq	%rax, (%rdi)
	callq	_ZN5boost16exception_detail12refcount_ptrINS0_20error_info_containerEE7add_refEv
	addq	$16, %rsp
	popq	%rbp
	.cfi_def_cfa %rsp, 8
	retq
.Lfunc_end47:
	.size	_ZN5boost16exception_detail12refcount_ptrINS0_20error_info_containerEEC2ERKS3_, .Lfunc_end47-_ZN5boost16exception_detail12refcount_ptrINS0_20error_info_containerEEC2ERKS3_
	.cfi_endproc
                                        # -- End function
	.section	.text._ZN5boost16exception_detail12refcount_ptrINS0_20error_info_containerEE7add_refEv,"axG",@progbits,_ZN5boost16exception_detail12refcount_ptrINS0_20error_info_containerEE7add_refEv,comdat
	.weak	_ZN5boost16exception_detail12refcount_ptrINS0_20error_info_containerEE7add_refEv # -- Begin function _ZN5boost16exception_detail12refcount_ptrINS0_20error_info_containerEE7add_refEv
	.p2align	4, 0x90
	.type	_ZN5boost16exception_detail12refcount_ptrINS0_20error_info_containerEE7add_refEv,@function
_ZN5boost16exception_detail12refcount_ptrINS0_20error_info_containerEE7add_refEv: # @_ZN5boost16exception_detail12refcount_ptrINS0_20error_info_containerEE7add_refEv
	.cfi_startproc
# %bb.0:
	pushq	%rbp
	.cfi_def_cfa_offset 16
	.cfi_offset %rbp, -16
	movq	%rsp, %rbp
	.cfi_def_cfa_register %rbp
	subq	$16, %rsp
	movq	%rdi, -8(%rbp)
	movq	-8(%rbp), %rax
	cmpq	$0, (%rax)
	je	.LBB48_2
# %bb.1:
	movq	(%rax), %rdi
	movq	(%rdi), %rax
	callq	*24(%rax)
.LBB48_2:
	addq	$16, %rsp
	popq	%rbp
	.cfi_def_cfa %rsp, 8
	retq
.Lfunc_end48:
	.size	_ZN5boost16exception_detail12refcount_ptrINS0_20error_info_containerEE7add_refEv, .Lfunc_end48-_ZN5boost16exception_detail12refcount_ptrINS0_20error_info_containerEE7add_refEv
	.cfi_endproc
                                        # -- End function
	.section	.text._ZN5boost16thread_exceptionC2ERKS0_,"axG",@progbits,_ZN5boost16thread_exceptionC2ERKS0_,comdat
	.weak	_ZN5boost16thread_exceptionC2ERKS0_ # -- Begin function _ZN5boost16thread_exceptionC2ERKS0_
	.p2align	4, 0x90
	.type	_ZN5boost16thread_exceptionC2ERKS0_,@function
_ZN5boost16thread_exceptionC2ERKS0_:    # @_ZN5boost16thread_exceptionC2ERKS0_
	.cfi_startproc
# %bb.0:
	pushq	%rbp
	.cfi_def_cfa_offset 16
	.cfi_offset %rbp, -16
	movq	%rsp, %rbp
	.cfi_def_cfa_register %rbp
	pushq	%rbx
	subq	$24, %rsp
	.cfi_offset %rbx, -24
	movq	%rdi, -24(%rbp)
	movq	%rsi, -16(%rbp)
	movq	-24(%rbp), %rbx
	movq	-16(%rbp), %rsi
	movq	%rbx, %rdi
	callq	_ZN5boost6system12system_errorC2ERKS1_
	movabsq	$_ZTVN5boost16thread_exceptionE, %rax
	addq	$16, %rax
	movq	%rax, (%rbx)
	addq	$24, %rsp
	popq	%rbx
	popq	%rbp
	.cfi_def_cfa %rsp, 8
	retq
.Lfunc_end49:
	.size	_ZN5boost16thread_exceptionC2ERKS0_, .Lfunc_end49-_ZN5boost16thread_exceptionC2ERKS0_
	.cfi_endproc
                                        # -- End function
	.section	.text._ZN5boost21thread_resource_errorD0Ev,"axG",@progbits,_ZN5boost21thread_resource_errorD0Ev,comdat
	.weak	_ZN5boost21thread_resource_errorD0Ev # -- Begin function _ZN5boost21thread_resource_errorD0Ev
	.p2align	4, 0x90
	.type	_ZN5boost21thread_resource_errorD0Ev,@function
_ZN5boost21thread_resource_errorD0Ev:   # @_ZN5boost21thread_resource_errorD0Ev
	.cfi_startproc
# %bb.0:
	pushq	%rbp
	.cfi_def_cfa_offset 16
	.cfi_offset %rbp, -16
	movq	%rsp, %rbp
	.cfi_def_cfa_register %rbp
	pushq	%rbx
	pushq	%rax
	.cfi_offset %rbx, -24
	movq	%rdi, -16(%rbp)
	movq	-16(%rbp), %rbx
	movq	%rbx, %rdi
	callq	_ZN5boost21thread_resource_errorD2Ev
	movq	%rbx, %rdi
	callq	_ZdlPv
	addq	$8, %rsp
	popq	%rbx
	popq	%rbp
	.cfi_def_cfa %rsp, 8
	retq
.Lfunc_end50:
	.size	_ZN5boost21thread_resource_errorD0Ev, .Lfunc_end50-_ZN5boost21thread_resource_errorD0Ev
	.cfi_endproc
                                        # -- End function
	.section	.text._ZN5boost6system12system_errorC2ERKS1_,"axG",@progbits,_ZN5boost6system12system_errorC2ERKS1_,comdat
	.weak	_ZN5boost6system12system_errorC2ERKS1_ # -- Begin function _ZN5boost6system12system_errorC2ERKS1_
	.p2align	4, 0x90
	.type	_ZN5boost6system12system_errorC2ERKS1_,@function
_ZN5boost6system12system_errorC2ERKS1_: # @_ZN5boost6system12system_errorC2ERKS1_
.Lfunc_begin8:
	.cfi_startproc
	.cfi_personality 3, __gxx_personality_v0
	.cfi_lsda 3, .Lexception8
# %bb.0:
	pushq	%rbp
	.cfi_def_cfa_offset 16
	.cfi_offset %rbp, -16
	movq	%rsp, %rbp
	.cfi_def_cfa_register %rbp
	pushq	%rbx
	subq	$40, %rsp
	.cfi_offset %rbx, -24
	movq	%rdi, -32(%rbp)
	movq	%rsi, -16(%rbp)
	movq	-32(%rbp), %rbx
	movq	-16(%rbp), %rsi
	movq	%rbx, %rdi
	callq	_ZNSt13runtime_errorC2ERKS_
	movq	$_ZTVN5boost6system12system_errorE+16, (%rbx)
	movq	-16(%rbp), %rax
	movups	16(%rax), %xmm0
	movups	%xmm0, 16(%rbx)
	movq	%rbx, %rdi
	addq	$32, %rdi
	movq	-16(%rbp), %rsi
	addq	$32, %rsi
.Ltmp39:
	callq	_ZNSt7__cxx1112basic_stringIcSt11char_traitsIcESaIcEEC1ERKS4_
.Ltmp40:
	jmp	.LBB51_1
.LBB51_1:
	addq	$40, %rsp
	popq	%rbx
	popq	%rbp
	.cfi_def_cfa %rsp, 8
	retq
.LBB51_2:
	.cfi_def_cfa %rbp, 16
.Ltmp41:
	movq	%rax, -24(%rbp)
	movl	%edx, -36(%rbp)
	movq	%rbx, %rdi
	callq	_ZNSt13runtime_errorD2Ev
# %bb.3:
	movq	-24(%rbp), %rdi
	callq	_Unwind_Resume
.Lfunc_end51:
	.size	_ZN5boost6system12system_errorC2ERKS1_, .Lfunc_end51-_ZN5boost6system12system_errorC2ERKS1_
	.cfi_endproc
	.section	.gcc_except_table,"a",@progbits
	.p2align	2
GCC_except_table51:
.Lexception8:
	.byte	255                     # @LPStart Encoding = omit
	.byte	255                     # @TType Encoding = omit
	.byte	1                       # Call site Encoding = uleb128
	.uleb128 .Lcst_end8-.Lcst_begin8
.Lcst_begin8:
	.uleb128 .Ltmp39-.Lfunc_begin8  # >> Call Site 1 <<
	.uleb128 .Ltmp40-.Ltmp39        #   Call between .Ltmp39 and .Ltmp40
	.uleb128 .Ltmp41-.Lfunc_begin8  #     jumps to .Ltmp41
	.byte	0                       #   On action: cleanup
	.uleb128 .Ltmp40-.Lfunc_begin8  # >> Call Site 2 <<
	.uleb128 .Lfunc_end51-.Ltmp40   #   Call between .Ltmp40 and .Lfunc_end51
	.byte	0                       #     has no landing pad
	.byte	0                       #   On action: cleanup
.Lcst_end8:
	.p2align	2
                                        # -- End function
	.section	.text._ZN5boost16thread_exceptionD0Ev,"axG",@progbits,_ZN5boost16thread_exceptionD0Ev,comdat
	.weak	_ZN5boost16thread_exceptionD0Ev # -- Begin function _ZN5boost16thread_exceptionD0Ev
	.p2align	4, 0x90
	.type	_ZN5boost16thread_exceptionD0Ev,@function
_ZN5boost16thread_exceptionD0Ev:        # @_ZN5boost16thread_exceptionD0Ev
	.cfi_startproc
# %bb.0:
	pushq	%rbp
	.cfi_def_cfa_offset 16
	.cfi_offset %rbp, -16
	movq	%rsp, %rbp
	.cfi_def_cfa_register %rbp
	pushq	%rbx
	pushq	%rax
	.cfi_offset %rbx, -24
	movq	%rdi, -16(%rbp)
	movq	-16(%rbp), %rbx
	movq	%rbx, %rdi
	callq	_ZN5boost16thread_exceptionD2Ev
	movq	%rbx, %rdi
	callq	_ZdlPv
	addq	$8, %rsp
	popq	%rbx
	popq	%rbp
	.cfi_def_cfa %rsp, 8
	retq
.Lfunc_end52:
	.size	_ZN5boost16thread_exceptionD0Ev, .Lfunc_end52-_ZN5boost16thread_exceptionD0Ev
	.cfi_endproc
                                        # -- End function
	.section	.text._ZN5boost16exception_detail10clone_baseD0Ev,"axG",@progbits,_ZN5boost16exception_detail10clone_baseD0Ev,comdat
	.weak	_ZN5boost16exception_detail10clone_baseD0Ev # -- Begin function _ZN5boost16exception_detail10clone_baseD0Ev
	.p2align	4, 0x90
	.type	_ZN5boost16exception_detail10clone_baseD0Ev,@function
_ZN5boost16exception_detail10clone_baseD0Ev: # @_ZN5boost16exception_detail10clone_baseD0Ev
	.cfi_startproc
# %bb.0:
	pushq	%rbp
	.cfi_def_cfa_offset 16
	.cfi_offset %rbp, -16
	movq	%rsp, %rbp
	.cfi_def_cfa_register %rbp
	movq	%rdi, -8(%rbp)
	ud2
.Lfunc_end53:
	.size	_ZN5boost16exception_detail10clone_baseD0Ev, .Lfunc_end53-_ZN5boost16exception_detail10clone_baseD0Ev
	.cfi_endproc
                                        # -- End function
	.section	.text._ZN5boost16exception_detail10clone_implINS0_19error_info_injectorINS_21thread_resource_errorEEEEC1ERKS5_NS5_9clone_tagE,"axG",@progbits,_ZN5boost16exception_detail10clone_implINS0_19error_info_injectorINS_21thread_resource_errorEEEEC1ERKS5_NS5_9clone_tagE,comdat
	.weak	_ZN5boost16exception_detail10clone_implINS0_19error_info_injectorINS_21thread_resource_errorEEEEC1ERKS5_NS5_9clone_tagE # -- Begin function _ZN5boost16exception_detail10clone_implINS0_19error_info_injectorINS_21thread_resource_errorEEEEC1ERKS5_NS5_9clone_tagE
	.p2align	4, 0x90
	.type	_ZN5boost16exception_detail10clone_implINS0_19error_info_injectorINS_21thread_resource_errorEEEEC1ERKS5_NS5_9clone_tagE,@function
_ZN5boost16exception_detail10clone_implINS0_19error_info_injectorINS_21thread_resource_errorEEEEC1ERKS5_NS5_9clone_tagE: # @_ZN5boost16exception_detail10clone_implINS0_19error_info_injectorINS_21thread_resource_errorEEEEC1ERKS5_NS5_9clone_tagE
.Lfunc_begin9:
	.cfi_startproc
	.cfi_personality 3, __gxx_personality_v0
	.cfi_lsda 3, .Lexception9
# %bb.0:
	pushq	%rbp
	.cfi_def_cfa_offset 16
	.cfi_offset %rbp, -16
	movq	%rsp, %rbp
	.cfi_def_cfa_register %rbp
	pushq	%rbx
	subq	$40, %rsp
	.cfi_offset %rbx, -24
	movq	%rdi, -40(%rbp)
	movq	%rsi, -32(%rbp)
	movq	-40(%rbp), %rbx
	movq	%rbx, %rdi
	addq	$104, %rdi
	callq	_ZN5boost16exception_detail10clone_baseC2Ev
	movq	-32(%rbp), %rsi
.Ltmp42:
	movq	%rbx, %rdi
	callq	_ZN5boost16exception_detail19error_info_injectorINS_21thread_resource_errorEEC2ERKS3_
.Ltmp43:
	jmp	.LBB54_1
.LBB54_1:
	xorl	%esi, %esi
	movabsq	$_ZTVN5boost16exception_detail10clone_implINS0_19error_info_injectorINS_21thread_resource_errorEEEEE, %rax
	movq	%rax, %rcx
	addq	$136, %rcx
	movq	%rax, %rdx
	addq	$80, %rdx
	addq	$24, %rax
	movq	%rax, (%rbx)
	movq	%rdx, 64(%rbx)
	movq	%rcx, 104(%rbx)
	movq	%rbx, %rdi
	addq	$64, %rdi
	movq	-32(%rbp), %rax
	cmpq	$0, %rax
	je	.LBB54_3
# %bb.2:
	addq	$64, %rax
	movq	%rax, %rsi
.LBB54_3:
.Ltmp45:
	callq	_ZN5boost16exception_detail20copy_boost_exceptionEPNS_9exceptionEPKS1_
.Ltmp46:
	jmp	.LBB54_4
.LBB54_4:
	addq	$40, %rsp
	popq	%rbx
	popq	%rbp
	.cfi_def_cfa %rsp, 8
	retq
.LBB54_5:
	.cfi_def_cfa %rbp, 16
.Ltmp44:
	movq	%rax, -24(%rbp)
	movl	%edx, -12(%rbp)
	jmp	.LBB54_7
.LBB54_6:
.Ltmp47:
	movq	%rax, -24(%rbp)
	movl	%edx, -12(%rbp)
	movq	%rbx, %rdi
	callq	_ZN5boost16exception_detail19error_info_injectorINS_21thread_resource_errorEED2Ev
.LBB54_7:
	addq	$104, %rbx
	movq	%rbx, %rdi
	callq	_ZN5boost16exception_detail10clone_baseD2Ev
# %bb.8:
	movq	-24(%rbp), %rdi
	callq	_Unwind_Resume
.Lfunc_end54:
	.size	_ZN5boost16exception_detail10clone_implINS0_19error_info_injectorINS_21thread_resource_errorEEEEC1ERKS5_NS5_9clone_tagE, .Lfunc_end54-_ZN5boost16exception_detail10clone_implINS0_19error_info_injectorINS_21thread_resource_errorEEEEC1ERKS5_NS5_9clone_tagE
	.cfi_endproc
	.section	.gcc_except_table,"a",@progbits
	.p2align	2
GCC_except_table54:
.Lexception9:
	.byte	255                     # @LPStart Encoding = omit
	.byte	255                     # @TType Encoding = omit
	.byte	1                       # Call site Encoding = uleb128
	.uleb128 .Lcst_end9-.Lcst_begin9
.Lcst_begin9:
	.uleb128 .Ltmp42-.Lfunc_begin9  # >> Call Site 1 <<
	.uleb128 .Ltmp43-.Ltmp42        #   Call between .Ltmp42 and .Ltmp43
	.uleb128 .Ltmp44-.Lfunc_begin9  #     jumps to .Ltmp44
	.byte	0                       #   On action: cleanup
	.uleb128 .Ltmp45-.Lfunc_begin9  # >> Call Site 2 <<
	.uleb128 .Ltmp46-.Ltmp45        #   Call between .Ltmp45 and .Ltmp46
	.uleb128 .Ltmp47-.Lfunc_begin9  #     jumps to .Ltmp47
	.byte	0                       #   On action: cleanup
	.uleb128 .Ltmp46-.Lfunc_begin9  # >> Call Site 3 <<
	.uleb128 .Lfunc_end54-.Ltmp46   #   Call between .Ltmp46 and .Lfunc_end54
	.byte	0                       #     has no landing pad
	.byte	0                       #   On action: cleanup
.Lcst_end9:
	.p2align	2
                                        # -- End function
	.section	.text._ZN5boost16exception_detail10clone_baseC2Ev,"axG",@progbits,_ZN5boost16exception_detail10clone_baseC2Ev,comdat
	.weak	_ZN5boost16exception_detail10clone_baseC2Ev # -- Begin function _ZN5boost16exception_detail10clone_baseC2Ev
	.p2align	4, 0x90
	.type	_ZN5boost16exception_detail10clone_baseC2Ev,@function
_ZN5boost16exception_detail10clone_baseC2Ev: # @_ZN5boost16exception_detail10clone_baseC2Ev
	.cfi_startproc
# %bb.0:
	pushq	%rbp
	.cfi_def_cfa_offset 16
	.cfi_offset %rbp, -16
	movq	%rsp, %rbp
	.cfi_def_cfa_register %rbp
	movabsq	$_ZTVN5boost16exception_detail10clone_baseE, %rax
	addq	$16, %rax
	movq	%rdi, -8(%rbp)
	movq	-8(%rbp), %rcx
	movq	%rax, (%rcx)
	popq	%rbp
	.cfi_def_cfa %rsp, 8
	retq
.Lfunc_end55:
	.size	_ZN5boost16exception_detail10clone_baseC2Ev, .Lfunc_end55-_ZN5boost16exception_detail10clone_baseC2Ev
	.cfi_endproc
                                        # -- End function
	.section	.text._ZN5boost16exception_detail20copy_boost_exceptionEPNS_9exceptionEPKS1_,"axG",@progbits,_ZN5boost16exception_detail20copy_boost_exceptionEPNS_9exceptionEPKS1_,comdat
	.weak	_ZN5boost16exception_detail20copy_boost_exceptionEPNS_9exceptionEPKS1_ # -- Begin function _ZN5boost16exception_detail20copy_boost_exceptionEPNS_9exceptionEPKS1_
	.p2align	4, 0x90
	.type	_ZN5boost16exception_detail20copy_boost_exceptionEPNS_9exceptionEPKS1_,@function
_ZN5boost16exception_detail20copy_boost_exceptionEPNS_9exceptionEPKS1_: # @_ZN5boost16exception_detail20copy_boost_exceptionEPNS_9exceptionEPKS1_
.Lfunc_begin10:
	.cfi_startproc
	.cfi_personality 3, __gxx_personality_v0
	.cfi_lsda 3, .Lexception10
# %bb.0:
	pushq	%rbp
	.cfi_def_cfa_offset 16
	.cfi_offset %rbp, -16
	movq	%rsp, %rbp
	.cfi_def_cfa_register %rbp
	subq	$64, %rsp
	movq	%rdi, -24(%rbp)
	movq	%rsi, -16(%rbp)
	leaq	-8(%rbp), %rdi
	callq	_ZN5boost16exception_detail12refcount_ptrINS0_20error_info_containerEEC2Ev
	movq	-16(%rbp), %rdi
	addq	$8, %rdi
.Ltmp48:
	callq	_ZNK5boost16exception_detail12refcount_ptrINS0_20error_info_containerEE3getEv
.Ltmp49:
	jmp	.LBB56_1
.LBB56_1:
	movq	%rax, -56(%rbp)
	cmpq	$0, -56(%rbp)
	je	.LBB56_7
# %bb.2:
	movq	-56(%rbp), %rsi
	movq	(%rsi), %rax
	movq	40(%rax), %rax
.Ltmp50:
	leaq	-32(%rbp), %rdi
	callq	*%rax
.Ltmp51:
	jmp	.LBB56_3
.LBB56_3:
.Ltmp52:
	leaq	-8(%rbp), %rdi
	leaq	-32(%rbp), %rsi
	callq	_ZN5boost16exception_detail12refcount_ptrINS0_20error_info_containerEEaSERKS3_
.Ltmp53:
	jmp	.LBB56_4
.LBB56_4:
	leaq	-32(%rbp), %rdi
	callq	_ZN5boost16exception_detail12refcount_ptrINS0_20error_info_containerEED2Ev
	jmp	.LBB56_7
.LBB56_5:
.Ltmp57:
	movq	%rax, -48(%rbp)
	movl	%edx, -36(%rbp)
	jmp	.LBB56_9
.LBB56_6:
.Ltmp54:
	movq	%rax, -48(%rbp)
	movl	%edx, -36(%rbp)
	leaq	-32(%rbp), %rdi
	callq	_ZN5boost16exception_detail12refcount_ptrINS0_20error_info_containerEED2Ev
	jmp	.LBB56_9
.LBB56_7:
	movq	-16(%rbp), %rax
	movq	24(%rax), %rax
	movq	-24(%rbp), %rcx
	movq	%rax, 24(%rcx)
	movq	-16(%rbp), %rax
	movl	32(%rax), %eax
	movq	-24(%rbp), %rcx
	movl	%eax, 32(%rcx)
	movq	-16(%rbp), %rax
	movq	16(%rax), %rax
	movq	-24(%rbp), %rcx
	movq	%rax, 16(%rcx)
	movq	-24(%rbp), %rdi
	addq	$8, %rdi
.Ltmp55:
	leaq	-8(%rbp), %rsi
	callq	_ZN5boost16exception_detail12refcount_ptrINS0_20error_info_containerEEaSERKS3_
.Ltmp56:
	jmp	.LBB56_8
.LBB56_8:
	leaq	-8(%rbp), %rdi
	callq	_ZN5boost16exception_detail12refcount_ptrINS0_20error_info_containerEED2Ev
	addq	$64, %rsp
	popq	%rbp
	.cfi_def_cfa %rsp, 8
	retq
.LBB56_9:
	.cfi_def_cfa %rbp, 16
	leaq	-8(%rbp), %rdi
	callq	_ZN5boost16exception_detail12refcount_ptrINS0_20error_info_containerEED2Ev
# %bb.10:
	movq	-48(%rbp), %rdi
	callq	_Unwind_Resume
.Lfunc_end56:
	.size	_ZN5boost16exception_detail20copy_boost_exceptionEPNS_9exceptionEPKS1_, .Lfunc_end56-_ZN5boost16exception_detail20copy_boost_exceptionEPNS_9exceptionEPKS1_
	.cfi_endproc
	.section	.gcc_except_table,"a",@progbits
	.p2align	2
GCC_except_table56:
.Lexception10:
	.byte	255                     # @LPStart Encoding = omit
	.byte	255                     # @TType Encoding = omit
	.byte	1                       # Call site Encoding = uleb128
	.uleb128 .Lcst_end10-.Lcst_begin10
.Lcst_begin10:
	.uleb128 .Ltmp48-.Lfunc_begin10 # >> Call Site 1 <<
	.uleb128 .Ltmp51-.Ltmp48        #   Call between .Ltmp48 and .Ltmp51
	.uleb128 .Ltmp57-.Lfunc_begin10 #     jumps to .Ltmp57
	.byte	0                       #   On action: cleanup
	.uleb128 .Ltmp52-.Lfunc_begin10 # >> Call Site 2 <<
	.uleb128 .Ltmp53-.Ltmp52        #   Call between .Ltmp52 and .Ltmp53
	.uleb128 .Ltmp54-.Lfunc_begin10 #     jumps to .Ltmp54
	.byte	0                       #   On action: cleanup
	.uleb128 .Ltmp55-.Lfunc_begin10 # >> Call Site 3 <<
	.uleb128 .Ltmp56-.Ltmp55        #   Call between .Ltmp55 and .Ltmp56
	.uleb128 .Ltmp57-.Lfunc_begin10 #     jumps to .Ltmp57
	.byte	0                       #   On action: cleanup
	.uleb128 .Ltmp56-.Lfunc_begin10 # >> Call Site 4 <<
	.uleb128 .Lfunc_end56-.Ltmp56   #   Call between .Ltmp56 and .Lfunc_end56
	.byte	0                       #     has no landing pad
	.byte	0                       #   On action: cleanup
.Lcst_end10:
	.p2align	2
                                        # -- End function
	.section	.text._ZN5boost16exception_detail12refcount_ptrINS0_20error_info_containerEEC2Ev,"axG",@progbits,_ZN5boost16exception_detail12refcount_ptrINS0_20error_info_containerEEC2Ev,comdat
	.weak	_ZN5boost16exception_detail12refcount_ptrINS0_20error_info_containerEEC2Ev # -- Begin function _ZN5boost16exception_detail12refcount_ptrINS0_20error_info_containerEEC2Ev
	.p2align	4, 0x90
	.type	_ZN5boost16exception_detail12refcount_ptrINS0_20error_info_containerEEC2Ev,@function
_ZN5boost16exception_detail12refcount_ptrINS0_20error_info_containerEEC2Ev: # @_ZN5boost16exception_detail12refcount_ptrINS0_20error_info_containerEEC2Ev
	.cfi_startproc
# %bb.0:
	pushq	%rbp
	.cfi_def_cfa_offset 16
	.cfi_offset %rbp, -16
	movq	%rsp, %rbp
	.cfi_def_cfa_register %rbp
	movq	%rdi, -8(%rbp)
	movq	-8(%rbp), %rax
	movq	$0, (%rax)
	popq	%rbp
	.cfi_def_cfa %rsp, 8
	retq
.Lfunc_end57:
	.size	_ZN5boost16exception_detail12refcount_ptrINS0_20error_info_containerEEC2Ev, .Lfunc_end57-_ZN5boost16exception_detail12refcount_ptrINS0_20error_info_containerEEC2Ev
	.cfi_endproc
                                        # -- End function
	.section	.text._ZNK5boost16exception_detail12refcount_ptrINS0_20error_info_containerEE3getEv,"axG",@progbits,_ZNK5boost16exception_detail12refcount_ptrINS0_20error_info_containerEE3getEv,comdat
	.weak	_ZNK5boost16exception_detail12refcount_ptrINS0_20error_info_containerEE3getEv # -- Begin function _ZNK5boost16exception_detail12refcount_ptrINS0_20error_info_containerEE3getEv
	.p2align	4, 0x90
	.type	_ZNK5boost16exception_detail12refcount_ptrINS0_20error_info_containerEE3getEv,@function
_ZNK5boost16exception_detail12refcount_ptrINS0_20error_info_containerEE3getEv: # @_ZNK5boost16exception_detail12refcount_ptrINS0_20error_info_containerEE3getEv
	.cfi_startproc
# %bb.0:
	pushq	%rbp
	.cfi_def_cfa_offset 16
	.cfi_offset %rbp, -16
	movq	%rsp, %rbp
	.cfi_def_cfa_register %rbp
	movq	%rdi, -8(%rbp)
	movq	-8(%rbp), %rax
	movq	(%rax), %rax
	popq	%rbp
	.cfi_def_cfa %rsp, 8
	retq
.Lfunc_end58:
	.size	_ZNK5boost16exception_detail12refcount_ptrINS0_20error_info_containerEE3getEv, .Lfunc_end58-_ZNK5boost16exception_detail12refcount_ptrINS0_20error_info_containerEE3getEv
	.cfi_endproc
                                        # -- End function
	.section	.text._ZN5boost16exception_detail12refcount_ptrINS0_20error_info_containerEEaSERKS3_,"axG",@progbits,_ZN5boost16exception_detail12refcount_ptrINS0_20error_info_containerEEaSERKS3_,comdat
	.weak	_ZN5boost16exception_detail12refcount_ptrINS0_20error_info_containerEEaSERKS3_ # -- Begin function _ZN5boost16exception_detail12refcount_ptrINS0_20error_info_containerEEaSERKS3_
	.p2align	4, 0x90
	.type	_ZN5boost16exception_detail12refcount_ptrINS0_20error_info_containerEEaSERKS3_,@function
_ZN5boost16exception_detail12refcount_ptrINS0_20error_info_containerEEaSERKS3_: # @_ZN5boost16exception_detail12refcount_ptrINS0_20error_info_containerEEaSERKS3_
	.cfi_startproc
# %bb.0:
	pushq	%rbp
	.cfi_def_cfa_offset 16
	.cfi_offset %rbp, -16
	movq	%rsp, %rbp
	.cfi_def_cfa_register %rbp
	pushq	%rbx
	subq	$24, %rsp
	.cfi_offset %rbx, -24
	movq	%rdi, -24(%rbp)
	movq	%rsi, -16(%rbp)
	movq	-24(%rbp), %rbx
	movq	-16(%rbp), %rax
	movq	(%rax), %rsi
	movq	%rbx, %rdi
	callq	_ZN5boost16exception_detail12refcount_ptrINS0_20error_info_containerEE5adoptEPS2_
	movq	%rbx, %rax
	addq	$24, %rsp
	popq	%rbx
	popq	%rbp
	.cfi_def_cfa %rsp, 8
	retq
.Lfunc_end59:
	.size	_ZN5boost16exception_detail12refcount_ptrINS0_20error_info_containerEEaSERKS3_, .Lfunc_end59-_ZN5boost16exception_detail12refcount_ptrINS0_20error_info_containerEEaSERKS3_
	.cfi_endproc
                                        # -- End function
	.section	.text._ZN5boost16exception_detail12refcount_ptrINS0_20error_info_containerEE5adoptEPS2_,"axG",@progbits,_ZN5boost16exception_detail12refcount_ptrINS0_20error_info_containerEE5adoptEPS2_,comdat
	.weak	_ZN5boost16exception_detail12refcount_ptrINS0_20error_info_containerEE5adoptEPS2_ # -- Begin function _ZN5boost16exception_detail12refcount_ptrINS0_20error_info_containerEE5adoptEPS2_
	.p2align	4, 0x90
	.type	_ZN5boost16exception_detail12refcount_ptrINS0_20error_info_containerEE5adoptEPS2_,@function
_ZN5boost16exception_detail12refcount_ptrINS0_20error_info_containerEE5adoptEPS2_: # @_ZN5boost16exception_detail12refcount_ptrINS0_20error_info_containerEE5adoptEPS2_
	.cfi_startproc
# %bb.0:
	pushq	%rbp
	.cfi_def_cfa_offset 16
	.cfi_offset %rbp, -16
	movq	%rsp, %rbp
	.cfi_def_cfa_register %rbp
	pushq	%rbx
	subq	$24, %rsp
	.cfi_offset %rbx, -24
	movq	%rdi, -24(%rbp)
	movq	%rsi, -16(%rbp)
	movq	-24(%rbp), %rbx
	movq	%rbx, %rdi
	callq	_ZN5boost16exception_detail12refcount_ptrINS0_20error_info_containerEE7releaseEv
	movq	-16(%rbp), %rax
	movq	%rax, (%rbx)
	movq	%rbx, %rdi
	callq	_ZN5boost16exception_detail12refcount_ptrINS0_20error_info_containerEE7add_refEv
	addq	$24, %rsp
	popq	%rbx
	popq	%rbp
	.cfi_def_cfa %rsp, 8
	retq
.Lfunc_end60:
	.size	_ZN5boost16exception_detail12refcount_ptrINS0_20error_info_containerEE5adoptEPS2_, .Lfunc_end60-_ZN5boost16exception_detail12refcount_ptrINS0_20error_info_containerEE5adoptEPS2_
	.cfi_endproc
                                        # -- End function
	.section	.text._ZN5boost16exception_detail10clone_implINS0_19error_info_injectorINS_21thread_resource_errorEEEEC1ERKS4_,"axG",@progbits,_ZN5boost16exception_detail10clone_implINS0_19error_info_injectorINS_21thread_resource_errorEEEEC1ERKS4_,comdat
	.weak	_ZN5boost16exception_detail10clone_implINS0_19error_info_injectorINS_21thread_resource_errorEEEEC1ERKS4_ # -- Begin function _ZN5boost16exception_detail10clone_implINS0_19error_info_injectorINS_21thread_resource_errorEEEEC1ERKS4_
	.p2align	4, 0x90
	.type	_ZN5boost16exception_detail10clone_implINS0_19error_info_injectorINS_21thread_resource_errorEEEEC1ERKS4_,@function
_ZN5boost16exception_detail10clone_implINS0_19error_info_injectorINS_21thread_resource_errorEEEEC1ERKS4_: # @_ZN5boost16exception_detail10clone_implINS0_19error_info_injectorINS_21thread_resource_errorEEEEC1ERKS4_
.Lfunc_begin11:
	.cfi_startproc
	.cfi_personality 3, __gxx_personality_v0
	.cfi_lsda 3, .Lexception11
# %bb.0:
	pushq	%rbp
	.cfi_def_cfa_offset 16
	.cfi_offset %rbp, -16
	movq	%rsp, %rbp
	.cfi_def_cfa_register %rbp
	pushq	%rbx
	subq	$40, %rsp
	.cfi_offset %rbx, -24
	movq	%rdi, -40(%rbp)
	movq	%rsi, -32(%rbp)
	movq	-40(%rbp), %rbx
	movq	%rbx, %rdi
	addq	$104, %rdi
	callq	_ZN5boost16exception_detail10clone_baseC2Ev
	movq	-32(%rbp), %rsi
.Ltmp58:
	movq	%rbx, %rdi
	callq	_ZN5boost16exception_detail19error_info_injectorINS_21thread_resource_errorEEC2ERKS3_
.Ltmp59:
	jmp	.LBB61_1
.LBB61_1:
	xorl	%esi, %esi
	movabsq	$_ZTVN5boost16exception_detail10clone_implINS0_19error_info_injectorINS_21thread_resource_errorEEEEE, %rax
	movq	%rax, %rcx
	addq	$136, %rcx
	movq	%rax, %rdx
	addq	$80, %rdx
	addq	$24, %rax
	movq	%rax, (%rbx)
	movq	%rdx, 64(%rbx)
	movq	%rcx, 104(%rbx)
	movq	%rbx, %rdi
	addq	$64, %rdi
	movq	-32(%rbp), %rax
	cmpq	$0, %rax
	je	.LBB61_3
# %bb.2:
	addq	$64, %rax
	movq	%rax, %rsi
.LBB61_3:
.Ltmp61:
	callq	_ZN5boost16exception_detail20copy_boost_exceptionEPNS_9exceptionEPKS1_
.Ltmp62:
	jmp	.LBB61_4
.LBB61_4:
	addq	$40, %rsp
	popq	%rbx
	popq	%rbp
	.cfi_def_cfa %rsp, 8
	retq
.LBB61_5:
	.cfi_def_cfa %rbp, 16
.Ltmp60:
	movq	%rax, -24(%rbp)
	movl	%edx, -12(%rbp)
	jmp	.LBB61_7
.LBB61_6:
.Ltmp63:
	movq	%rax, -24(%rbp)
	movl	%edx, -12(%rbp)
	movq	%rbx, %rdi
	callq	_ZN5boost16exception_detail19error_info_injectorINS_21thread_resource_errorEED2Ev
.LBB61_7:
	addq	$104, %rbx
	movq	%rbx, %rdi
	callq	_ZN5boost16exception_detail10clone_baseD2Ev
# %bb.8:
	movq	-24(%rbp), %rdi
	callq	_Unwind_Resume
.Lfunc_end61:
	.size	_ZN5boost16exception_detail10clone_implINS0_19error_info_injectorINS_21thread_resource_errorEEEEC1ERKS4_, .Lfunc_end61-_ZN5boost16exception_detail10clone_implINS0_19error_info_injectorINS_21thread_resource_errorEEEEC1ERKS4_
	.cfi_endproc
	.section	.gcc_except_table,"a",@progbits
	.p2align	2
GCC_except_table61:
.Lexception11:
	.byte	255                     # @LPStart Encoding = omit
	.byte	255                     # @TType Encoding = omit
	.byte	1                       # Call site Encoding = uleb128
	.uleb128 .Lcst_end11-.Lcst_begin11
.Lcst_begin11:
	.uleb128 .Ltmp58-.Lfunc_begin11 # >> Call Site 1 <<
	.uleb128 .Ltmp59-.Ltmp58        #   Call between .Ltmp58 and .Ltmp59
	.uleb128 .Ltmp60-.Lfunc_begin11 #     jumps to .Ltmp60
	.byte	0                       #   On action: cleanup
	.uleb128 .Ltmp61-.Lfunc_begin11 # >> Call Site 2 <<
	.uleb128 .Ltmp62-.Ltmp61        #   Call between .Ltmp61 and .Ltmp62
	.uleb128 .Ltmp63-.Lfunc_begin11 #     jumps to .Ltmp63
	.byte	0                       #   On action: cleanup
	.uleb128 .Ltmp62-.Lfunc_begin11 # >> Call Site 3 <<
	.uleb128 .Lfunc_end61-.Ltmp62   #   Call between .Ltmp62 and .Lfunc_end61
	.byte	0                       #     has no landing pad
	.byte	0                       #   On action: cleanup
.Lcst_end11:
	.p2align	2
                                        # -- End function
	.section	.text._ZN5boost16exception_detail19error_info_injectorINS_21thread_resource_errorEEC2ERKS2_,"axG",@progbits,_ZN5boost16exception_detail19error_info_injectorINS_21thread_resource_errorEEC2ERKS2_,comdat
	.weak	_ZN5boost16exception_detail19error_info_injectorINS_21thread_resource_errorEEC2ERKS2_ # -- Begin function _ZN5boost16exception_detail19error_info_injectorINS_21thread_resource_errorEEC2ERKS2_
	.p2align	4, 0x90
	.type	_ZN5boost16exception_detail19error_info_injectorINS_21thread_resource_errorEEC2ERKS2_,@function
_ZN5boost16exception_detail19error_info_injectorINS_21thread_resource_errorEEC2ERKS2_: # @_ZN5boost16exception_detail19error_info_injectorINS_21thread_resource_errorEEC2ERKS2_
.Lfunc_begin12:
	.cfi_startproc
	.cfi_personality 3, __gxx_personality_v0
	.cfi_lsda 3, .Lexception12
# %bb.0:
	pushq	%rbp
	.cfi_def_cfa_offset 16
	.cfi_offset %rbp, -16
	movq	%rsp, %rbp
	.cfi_def_cfa_register %rbp
	pushq	%rbx
	subq	$40, %rsp
	.cfi_offset %rbx, -24
	movq	%rdi, -32(%rbp)
	movq	%rsi, -24(%rbp)
	movq	-32(%rbp), %rbx
	movq	-24(%rbp), %rsi
	movq	%rbx, %rdi
	callq	_ZN5boost21thread_resource_errorC2ERKS0_
	movq	%rbx, %rdi
	addq	$64, %rdi
.Ltmp64:
	callq	_ZN5boost9exceptionC2Ev
.Ltmp65:
	jmp	.LBB62_1
.LBB62_1:
	movabsq	$_ZTVN5boost16exception_detail19error_info_injectorINS_21thread_resource_errorEEE, %rax
	movq	%rax, %rcx
	addq	$56, %rcx
	addq	$16, %rax
	movq	%rax, (%rbx)
	movq	%rcx, 64(%rbx)
	addq	$40, %rsp
	popq	%rbx
	popq	%rbp
	.cfi_def_cfa %rsp, 8
	retq
.LBB62_2:
	.cfi_def_cfa %rbp, 16
.Ltmp66:
	movq	%rax, -16(%rbp)
	movl	%edx, -36(%rbp)
	movq	%rbx, %rdi
	callq	_ZN5boost21thread_resource_errorD2Ev
# %bb.3:
	movq	-16(%rbp), %rdi
	callq	_Unwind_Resume
.Lfunc_end62:
	.size	_ZN5boost16exception_detail19error_info_injectorINS_21thread_resource_errorEEC2ERKS2_, .Lfunc_end62-_ZN5boost16exception_detail19error_info_injectorINS_21thread_resource_errorEEC2ERKS2_
	.cfi_endproc
	.section	.gcc_except_table,"a",@progbits
	.p2align	2
GCC_except_table62:
.Lexception12:
	.byte	255                     # @LPStart Encoding = omit
	.byte	255                     # @TType Encoding = omit
	.byte	1                       # Call site Encoding = uleb128
	.uleb128 .Lcst_end12-.Lcst_begin12
.Lcst_begin12:
	.uleb128 .Lfunc_begin12-.Lfunc_begin12 # >> Call Site 1 <<
	.uleb128 .Ltmp64-.Lfunc_begin12 #   Call between .Lfunc_begin12 and .Ltmp64
	.byte	0                       #     has no landing pad
	.byte	0                       #   On action: cleanup
	.uleb128 .Ltmp64-.Lfunc_begin12 # >> Call Site 2 <<
	.uleb128 .Ltmp65-.Ltmp64        #   Call between .Ltmp64 and .Ltmp65
	.uleb128 .Ltmp66-.Lfunc_begin12 #     jumps to .Ltmp66
	.byte	0                       #   On action: cleanup
	.uleb128 .Ltmp65-.Lfunc_begin12 # >> Call Site 3 <<
	.uleb128 .Lfunc_end62-.Ltmp65   #   Call between .Ltmp65 and .Lfunc_end62
	.byte	0                       #     has no landing pad
	.byte	0                       #   On action: cleanup
.Lcst_end12:
	.p2align	2
                                        # -- End function
	.section	.text._ZN5boost9exceptionC2Ev,"axG",@progbits,_ZN5boost9exceptionC2Ev,comdat
	.weak	_ZN5boost9exceptionC2Ev # -- Begin function _ZN5boost9exceptionC2Ev
	.p2align	4, 0x90
	.type	_ZN5boost9exceptionC2Ev,@function
_ZN5boost9exceptionC2Ev:                # @_ZN5boost9exceptionC2Ev
	.cfi_startproc
# %bb.0:
	pushq	%rbp
	.cfi_def_cfa_offset 16
	.cfi_offset %rbp, -16
	movq	%rsp, %rbp
	.cfi_def_cfa_register %rbp
	pushq	%rbx
	pushq	%rax
	.cfi_offset %rbx, -24
	movabsq	$_ZTVN5boost9exceptionE, %rax
	addq	$16, %rax
	movq	%rdi, -16(%rbp)
	movq	-16(%rbp), %rbx
	movq	%rax, (%rbx)
	movq	%rbx, %rdi
	addq	$8, %rdi
	callq	_ZN5boost16exception_detail12refcount_ptrINS0_20error_info_containerEEC2Ev
	movq	$0, 16(%rbx)
	movq	$0, 24(%rbx)
	movl	$-1, 32(%rbx)
	addq	$8, %rsp
	popq	%rbx
	popq	%rbp
	.cfi_def_cfa %rsp, 8
	retq
.Lfunc_end63:
	.size	_ZN5boost9exceptionC2Ev, .Lfunc_end63-_ZN5boost9exceptionC2Ev
	.cfi_endproc
                                        # -- End function
	.section	.text._ZN5boost16thread_exceptionC2EiPKc,"axG",@progbits,_ZN5boost16thread_exceptionC2EiPKc,comdat
	.weak	_ZN5boost16thread_exceptionC2EiPKc # -- Begin function _ZN5boost16thread_exceptionC2EiPKc
	.p2align	4, 0x90
	.type	_ZN5boost16thread_exceptionC2EiPKc,@function
_ZN5boost16thread_exceptionC2EiPKc:     # @_ZN5boost16thread_exceptionC2EiPKc
	.cfi_startproc
# %bb.0:
	pushq	%rbp
	.cfi_def_cfa_offset 16
	.cfi_offset %rbp, -16
	movq	%rsp, %rbp
	.cfi_def_cfa_register %rbp
	pushq	%r14
	pushq	%rbx
	subq	$48, %rsp
	.cfi_offset %rbx, -32
	.cfi_offset %r14, -24
	movq	%rdi, -40(%rbp)
	movl	%esi, -20(%rbp)
	movq	%rdx, -32(%rbp)
	movq	-40(%rbp), %r14
	movl	-20(%rbp), %ebx
	callq	_ZN5boost6system16generic_categoryEv
	leaq	-56(%rbp), %rdi
	movl	%ebx, %esi
	movq	%rax, %rdx
	callq	_ZN5boost6system10error_codeC2EiRKNS0_14error_categoryE
	movq	-32(%rbp), %rcx
	movl	-56(%rbp), %esi
	movq	-48(%rbp), %rdx
	movq	%r14, %rdi
	callq	_ZN5boost6system12system_errorC2ENS0_10error_codeEPKc
	movabsq	$_ZTVN5boost16thread_exceptionE, %rax
	addq	$16, %rax
	movq	%rax, (%r14)
	addq	$48, %rsp
	popq	%rbx
	popq	%r14
	popq	%rbp
	.cfi_def_cfa %rsp, 8
	retq
.Lfunc_end64:
	.size	_ZN5boost16thread_exceptionC2EiPKc, .Lfunc_end64-_ZN5boost16thread_exceptionC2EiPKc
	.cfi_endproc
                                        # -- End function
	.section	.text._ZN5boost6system10error_codeC2EiRKNS0_14error_categoryE,"axG",@progbits,_ZN5boost6system10error_codeC2EiRKNS0_14error_categoryE,comdat
	.weak	_ZN5boost6system10error_codeC2EiRKNS0_14error_categoryE # -- Begin function _ZN5boost6system10error_codeC2EiRKNS0_14error_categoryE
	.p2align	4, 0x90
	.type	_ZN5boost6system10error_codeC2EiRKNS0_14error_categoryE,@function
_ZN5boost6system10error_codeC2EiRKNS0_14error_categoryE: # @_ZN5boost6system10error_codeC2EiRKNS0_14error_categoryE
	.cfi_startproc
# %bb.0:
	pushq	%rbp
	.cfi_def_cfa_offset 16
	.cfi_offset %rbp, -16
	movq	%rsp, %rbp
	.cfi_def_cfa_register %rbp
	movq	%rdi, -24(%rbp)
	movl	%esi, -4(%rbp)
	movq	%rdx, -16(%rbp)
	movq	-24(%rbp), %rax
	movl	-4(%rbp), %ecx
	movl	%ecx, (%rax)
	movq	-16(%rbp), %rcx
	movq	%rcx, 8(%rax)
	popq	%rbp
	.cfi_def_cfa %rsp, 8
	retq
.Lfunc_end65:
	.size	_ZN5boost6system10error_codeC2EiRKNS0_14error_categoryE, .Lfunc_end65-_ZN5boost6system10error_codeC2EiRKNS0_14error_categoryE
	.cfi_endproc
                                        # -- End function
	.section	.text._ZN5boost6system12system_errorC2ENS0_10error_codeEPKc,"axG",@progbits,_ZN5boost6system12system_errorC2ENS0_10error_codeEPKc,comdat
	.weak	_ZN5boost6system12system_errorC2ENS0_10error_codeEPKc # -- Begin function _ZN5boost6system12system_errorC2ENS0_10error_codeEPKc
	.p2align	4, 0x90
	.type	_ZN5boost6system12system_errorC2ENS0_10error_codeEPKc,@function
_ZN5boost6system12system_errorC2ENS0_10error_codeEPKc: # @_ZN5boost6system12system_errorC2ENS0_10error_codeEPKc
	.cfi_startproc
# %bb.0:
	pushq	%rbp
	.cfi_def_cfa_offset 16
	.cfi_offset %rbp, -16
	movq	%rsp, %rbp
	.cfi_def_cfa_register %rbp
	pushq	%rbx
	subq	$40, %rsp
	.cfi_offset %rbx, -24
	movl	%esi, -40(%rbp)
	movq	%rdx, -32(%rbp)
	movq	%rdi, -24(%rbp)
	movq	%rcx, -16(%rbp)
	movq	-24(%rbp), %rbx
	movq	-16(%rbp), %rsi
	movq	%rbx, %rdi
	callq	_ZNSt13runtime_errorC2EPKc
	movabsq	$_ZTVN5boost6system12system_errorE, %rax
	addq	$16, %rax
	movq	%rax, (%rbx)
	movq	-40(%rbp), %rax
	movq	%rax, 16(%rbx)
	movq	-32(%rbp), %rax
	movq	%rax, 24(%rbx)
	addq	$32, %rbx
	movq	%rbx, %rdi
	callq	_ZNSt7__cxx1112basic_stringIcSt11char_traitsIcESaIcEEC1Ev
	addq	$40, %rsp
	popq	%rbx
	popq	%rbp
	.cfi_def_cfa %rsp, 8
	retq
.Lfunc_end66:
	.size	_ZN5boost6system12system_errorC2ENS0_10error_codeEPKc, .Lfunc_end66-_ZN5boost6system12system_errorC2ENS0_10error_codeEPKc
	.cfi_endproc
                                        # -- End function
	.section	.text._ZN5boost11optional_ns18in_place_init_if_tC2ENS1_8init_tagE,"axG",@progbits,_ZN5boost11optional_ns18in_place_init_if_tC2ENS1_8init_tagE,comdat
	.weak	_ZN5boost11optional_ns18in_place_init_if_tC2ENS1_8init_tagE # -- Begin function _ZN5boost11optional_ns18in_place_init_if_tC2ENS1_8init_tagE
	.p2align	4, 0x90
	.type	_ZN5boost11optional_ns18in_place_init_if_tC2ENS1_8init_tagE,@function
_ZN5boost11optional_ns18in_place_init_if_tC2ENS1_8init_tagE: # @_ZN5boost11optional_ns18in_place_init_if_tC2ENS1_8init_tagE
	.cfi_startproc
# %bb.0:
	pushq	%rbp
	.cfi_def_cfa_offset 16
	.cfi_offset %rbp, -16
	movq	%rsp, %rbp
	.cfi_def_cfa_register %rbp
	movq	%rdi, -8(%rbp)
	popq	%rbp
	.cfi_def_cfa %rsp, 8
	retq
.Lfunc_end67:
	.size	_ZN5boost11optional_ns18in_place_init_if_tC2ENS1_8init_tagE, .Lfunc_end67-_ZN5boost11optional_ns18in_place_init_if_tC2ENS1_8init_tagE
	.cfi_endproc
                                        # -- End function
	.section	.text._ZN5boost11optional_ns15in_place_init_tC2ENS1_8init_tagE,"axG",@progbits,_ZN5boost11optional_ns15in_place_init_tC2ENS1_8init_tagE,comdat
	.weak	_ZN5boost11optional_ns15in_place_init_tC2ENS1_8init_tagE # -- Begin function _ZN5boost11optional_ns15in_place_init_tC2ENS1_8init_tagE
	.p2align	4, 0x90
	.type	_ZN5boost11optional_ns15in_place_init_tC2ENS1_8init_tagE,@function
_ZN5boost11optional_ns15in_place_init_tC2ENS1_8init_tagE: # @_ZN5boost11optional_ns15in_place_init_tC2ENS1_8init_tagE
	.cfi_startproc
# %bb.0:
	pushq	%rbp
	.cfi_def_cfa_offset 16
	.cfi_offset %rbp, -16
	movq	%rsp, %rbp
	.cfi_def_cfa_register %rbp
	movq	%rdi, -8(%rbp)
	popq	%rbp
	.cfi_def_cfa %rsp, 8
	retq
.Lfunc_end68:
	.size	_ZN5boost11optional_ns15in_place_init_tC2ENS1_8init_tagE, .Lfunc_end68-_ZN5boost11optional_ns15in_place_init_tC2ENS1_8init_tagE
	.cfi_endproc
                                        # -- End function
	.section	.text._ZN5boost6none_tC2ENS0_8init_tagE,"axG",@progbits,_ZN5boost6none_tC2ENS0_8init_tagE,comdat
	.weak	_ZN5boost6none_tC2ENS0_8init_tagE # -- Begin function _ZN5boost6none_tC2ENS0_8init_tagE
	.p2align	4, 0x90
	.type	_ZN5boost6none_tC2ENS0_8init_tagE,@function
_ZN5boost6none_tC2ENS0_8init_tagE:      # @_ZN5boost6none_tC2ENS0_8init_tagE
	.cfi_startproc
# %bb.0:
	pushq	%rbp
	.cfi_def_cfa_offset 16
	.cfi_offset %rbp, -16
	movq	%rsp, %rbp
	.cfi_def_cfa_register %rbp
	movq	%rdi, -8(%rbp)
	popq	%rbp
	.cfi_def_cfa %rsp, 8
	retq
.Lfunc_end69:
	.size	_ZN5boost6none_tC2ENS0_8init_tagE, .Lfunc_end69-_ZN5boost6none_tC2ENS0_8init_tagE
	.cfi_endproc
                                        # -- End function
	.section	.text._ZN5boost16exception_detail27get_static_exception_objectINS0_14bad_exception_EEENS_13exception_ptrEv,"axG",@progbits,_ZN5boost16exception_detail27get_static_exception_objectINS0_14bad_exception_EEENS_13exception_ptrEv,comdat
	.weak	_ZN5boost16exception_detail27get_static_exception_objectINS0_14bad_exception_EEENS_13exception_ptrEv # -- Begin function _ZN5boost16exception_detail27get_static_exception_objectINS0_14bad_exception_EEENS_13exception_ptrEv
	.p2align	4, 0x90
	.type	_ZN5boost16exception_detail27get_static_exception_objectINS0_14bad_exception_EEENS_13exception_ptrEv,@function
_ZN5boost16exception_detail27get_static_exception_objectINS0_14bad_exception_EEENS_13exception_ptrEv: # @_ZN5boost16exception_detail27get_static_exception_objectINS0_14bad_exception_EEENS_13exception_ptrEv
.Lfunc_begin13:
	.cfi_startproc
	.cfi_personality 3, __gxx_personality_v0
	.cfi_lsda 3, .Lexception13
# %bb.0:
	pushq	%rbp
	.cfi_def_cfa_offset 16
	.cfi_offset %rbp, -16
	movq	%rsp, %rbp
	.cfi_def_cfa_register %rbp
	pushq	%r15
	pushq	%r14
	pushq	%rbx
	subq	$168, %rsp
	.cfi_offset %rbx, -40
	.cfi_offset %r14, -32
	.cfi_offset %r15, -24
	movq	%rdi, %r15
	movq	%r15, -88(%rbp)
	leaq	-192(%rbp), %rbx
	movq	%rbx, %rdi
	callq	_ZN5boost16exception_detail14bad_exception_C2Ev
.Ltmp67:
	leaq	-144(%rbp), %rdi
	movq	%rbx, %rsi
	callq	_ZN5boost16exception_detail10clone_implINS0_14bad_exception_EEC1ERKS2_
.Ltmp68:
	jmp	.LBB70_1
.LBB70_1:
.Ltmp70:
	leaq	-80(%rbp), %rdi
	movl	$.L__PRETTY_FUNCTION__._ZN5boost16exception_detail27get_static_exception_objectINS0_14bad_exception_EEENS_13exception_ptrEv, %esi
	callq	_ZN5boost10error_infoINS_15throw_function_EPKcEC2ES3_
.Ltmp71:
	jmp	.LBB70_2
.LBB70_2:
.Ltmp72:
	leaq	-144(%rbp), %rdi
	leaq	-80(%rbp), %rsi
	callq	_ZN5boostlsINS_16exception_detail10clone_implINS1_14bad_exception_EEENS_15throw_function_EPKcEENS_9enable_ifINS1_23derives_boost_exceptionIT_EERKSA_E4typeESD_ONS_10error_infoIT0_T1_EE
	movq	%rax, %r14
.Ltmp73:
	jmp	.LBB70_3
.LBB70_3:
.Ltmp74:
	leaq	-72(%rbp), %rdi
	movl	$.L.str.13, %esi
	callq	_ZN5boost10error_infoINS_11throw_file_EPKcEC2ES3_
.Ltmp75:
	jmp	.LBB70_4
.LBB70_4:
.Ltmp76:
	leaq	-72(%rbp), %rsi
	movq	%r14, %rdi
	callq	_ZN5boostlsINS_16exception_detail10clone_implINS1_14bad_exception_EEENS_11throw_file_EPKcEENS_9enable_ifINS1_23derives_boost_exceptionIT_EERKSA_E4typeESD_ONS_10error_infoIT0_T1_EE
	movq	%rax, %r14
.Ltmp77:
	jmp	.LBB70_5
.LBB70_5:
.Ltmp78:
	leaq	-48(%rbp), %rdi
	movl	$129, %esi
	callq	_ZN5boost10error_infoINS_11throw_line_EiEC2Ei
.Ltmp79:
	jmp	.LBB70_6
.LBB70_6:
.Ltmp80:
	leaq	-48(%rbp), %rsi
	movq	%r14, %rdi
	callq	_ZN5boostlsINS_16exception_detail10clone_implINS1_14bad_exception_EEENS_11throw_line_EiEENS_9enable_ifINS1_23derives_boost_exceptionIT_EERKS8_E4typeESB_ONS_10error_infoIT0_T1_EE
.Ltmp81:
	jmp	.LBB70_7
.LBB70_7:
	cmpb	$0, _ZGVZN5boost16exception_detail27get_static_exception_objectINS0_14bad_exception_EEENS_13exception_ptrEvE2ep
	jne	.LBB70_14
# %bb.8:
	movabsq	$_ZGVZN5boost16exception_detail27get_static_exception_objectINS0_14bad_exception_EEENS_13exception_ptrEvE2ep, %rdi
	callq	__cxa_guard_acquire
	cmpl	$0, %eax
	je	.LBB70_14
# %bb.9:
.Ltmp83:
	movl	$56, %edi
	callq	_Znwm
	movq	%rax, %r14
.Ltmp84:
	jmp	.LBB70_10
.LBB70_10:
.Ltmp85:
	leaq	-144(%rbp), %rsi
	movq	%r14, %rdi
	callq	_ZN5boost16exception_detail10clone_implINS0_14bad_exception_EEC1ERKS3_
.Ltmp86:
	jmp	.LBB70_11
.LBB70_11:
.Ltmp88:
	leaq	-64(%rbp), %rdi
	movq	%r14, %rsi
	callq	_ZN5boost10shared_ptrIKNS_16exception_detail10clone_baseEEC2INS1_10clone_implINS1_14bad_exception_EEEEEPT_
.Ltmp89:
	jmp	.LBB70_12
.LBB70_12:
.Ltmp91:
	leaq	-64(%rbp), %rsi
	movl	$_ZZN5boost16exception_detail27get_static_exception_objectINS0_14bad_exception_EEENS_13exception_ptrEvE2ep, %edi
	callq	_ZN5boost13exception_ptrC2ERKNS_10shared_ptrIKNS_16exception_detail10clone_baseEEE
.Ltmp92:
	jmp	.LBB70_13
.LBB70_13:
	leaq	-64(%rbp), %rdi
	callq	_ZN5boost10shared_ptrIKNS_16exception_detail10clone_baseEED2Ev
	movabsq	$_ZN5boost13exception_ptrD2Ev, %rdi
	movabsq	$_ZZN5boost16exception_detail27get_static_exception_objectINS0_14bad_exception_EEENS_13exception_ptrEvE2ep, %rsi
	movabsq	$__dso_handle, %rdx
	callq	__cxa_atexit
	movabsq	$_ZGVZN5boost16exception_detail27get_static_exception_objectINS0_14bad_exception_EEENS_13exception_ptrEvE2ep, %rdi
	callq	__cxa_guard_release
.LBB70_14:
	movq	%r15, %rdi
	movabsq	$_ZZN5boost16exception_detail27get_static_exception_objectINS0_14bad_exception_EEENS_13exception_ptrEvE2ep, %rsi
	callq	_ZN5boost13exception_ptrC2ERKS0_
	leaq	-144(%rbp), %rdi
	callq	_ZN5boost16exception_detail10clone_implINS0_14bad_exception_EED1Ev
	leaq	-192(%rbp), %rdi
	callq	_ZN5boost16exception_detail14bad_exception_D2Ev
	movq	%r15, %rax
	addq	$168, %rsp
	popq	%rbx
	popq	%r14
	popq	%r15
	popq	%rbp
	.cfi_def_cfa %rsp, 8
	retq
.LBB70_15:
	.cfi_def_cfa %rbp, 16
.Ltmp69:
	movq	%rax, -40(%rbp)
	movl	%edx, -28(%rbp)
	jmp	.LBB70_22
.LBB70_16:
.Ltmp82:
	movq	%rax, -40(%rbp)
	movl	%edx, -28(%rbp)
	jmp	.LBB70_21
.LBB70_17:
.Ltmp90:
	movq	%rax, -40(%rbp)
	movl	%edx, -28(%rbp)
	jmp	.LBB70_20
.LBB70_18:
.Ltmp87:
	movq	%rax, -40(%rbp)
	movl	%edx, -28(%rbp)
	movq	%r14, %rdi
	callq	_ZdlPv
	jmp	.LBB70_20
.LBB70_19:
.Ltmp93:
	movq	%rax, -40(%rbp)
	movl	%edx, -28(%rbp)
	leaq	-64(%rbp), %rdi
	callq	_ZN5boost10shared_ptrIKNS_16exception_detail10clone_baseEED2Ev
.LBB70_20:
	movabsq	$_ZGVZN5boost16exception_detail27get_static_exception_objectINS0_14bad_exception_EEENS_13exception_ptrEvE2ep, %rdi
	callq	__cxa_guard_abort
.LBB70_21:
	leaq	-144(%rbp), %rdi
	callq	_ZN5boost16exception_detail10clone_implINS0_14bad_exception_EED1Ev
.LBB70_22:
	leaq	-192(%rbp), %rdi
	callq	_ZN5boost16exception_detail14bad_exception_D2Ev
# %bb.23:
	movq	-40(%rbp), %rdi
	callq	_Unwind_Resume
.Lfunc_end70:
	.size	_ZN5boost16exception_detail27get_static_exception_objectINS0_14bad_exception_EEENS_13exception_ptrEv, .Lfunc_end70-_ZN5boost16exception_detail27get_static_exception_objectINS0_14bad_exception_EEENS_13exception_ptrEv
	.cfi_endproc
	.section	.gcc_except_table,"a",@progbits
	.p2align	2
GCC_except_table70:
.Lexception13:
	.byte	255                     # @LPStart Encoding = omit
	.byte	255                     # @TType Encoding = omit
	.byte	1                       # Call site Encoding = uleb128
	.uleb128 .Lcst_end13-.Lcst_begin13
.Lcst_begin13:
	.uleb128 .Lfunc_begin13-.Lfunc_begin13 # >> Call Site 1 <<
	.uleb128 .Ltmp67-.Lfunc_begin13 #   Call between .Lfunc_begin13 and .Ltmp67
	.byte	0                       #     has no landing pad
	.byte	0                       #   On action: cleanup
	.uleb128 .Ltmp67-.Lfunc_begin13 # >> Call Site 2 <<
	.uleb128 .Ltmp68-.Ltmp67        #   Call between .Ltmp67 and .Ltmp68
	.uleb128 .Ltmp69-.Lfunc_begin13 #     jumps to .Ltmp69
	.byte	0                       #   On action: cleanup
	.uleb128 .Ltmp70-.Lfunc_begin13 # >> Call Site 3 <<
	.uleb128 .Ltmp81-.Ltmp70        #   Call between .Ltmp70 and .Ltmp81
	.uleb128 .Ltmp82-.Lfunc_begin13 #     jumps to .Ltmp82
	.byte	0                       #   On action: cleanup
	.uleb128 .Ltmp83-.Lfunc_begin13 # >> Call Site 4 <<
	.uleb128 .Ltmp84-.Ltmp83        #   Call between .Ltmp83 and .Ltmp84
	.uleb128 .Ltmp90-.Lfunc_begin13 #     jumps to .Ltmp90
	.byte	0                       #   On action: cleanup
	.uleb128 .Ltmp85-.Lfunc_begin13 # >> Call Site 5 <<
	.uleb128 .Ltmp86-.Ltmp85        #   Call between .Ltmp85 and .Ltmp86
	.uleb128 .Ltmp87-.Lfunc_begin13 #     jumps to .Ltmp87
	.byte	0                       #   On action: cleanup
	.uleb128 .Ltmp88-.Lfunc_begin13 # >> Call Site 6 <<
	.uleb128 .Ltmp89-.Ltmp88        #   Call between .Ltmp88 and .Ltmp89
	.uleb128 .Ltmp90-.Lfunc_begin13 #     jumps to .Ltmp90
	.byte	0                       #   On action: cleanup
	.uleb128 .Ltmp91-.Lfunc_begin13 # >> Call Site 7 <<
	.uleb128 .Ltmp92-.Ltmp91        #   Call between .Ltmp91 and .Ltmp92
	.uleb128 .Ltmp93-.Lfunc_begin13 #     jumps to .Ltmp93
	.byte	0                       #   On action: cleanup
	.uleb128 .Ltmp92-.Lfunc_begin13 # >> Call Site 8 <<
	.uleb128 .Lfunc_end70-.Ltmp92   #   Call between .Ltmp92 and .Lfunc_end70
	.byte	0                       #     has no landing pad
	.byte	0                       #   On action: cleanup
.Lcst_end13:
	.p2align	2
                                        # -- End function
	.section	.text._ZN5boost13exception_ptrD2Ev,"axG",@progbits,_ZN5boost13exception_ptrD2Ev,comdat
	.weak	_ZN5boost13exception_ptrD2Ev # -- Begin function _ZN5boost13exception_ptrD2Ev
	.p2align	4, 0x90
	.type	_ZN5boost13exception_ptrD2Ev,@function
_ZN5boost13exception_ptrD2Ev:           # @_ZN5boost13exception_ptrD2Ev
	.cfi_startproc
# %bb.0:
	pushq	%rbp
	.cfi_def_cfa_offset 16
	.cfi_offset %rbp, -16
	movq	%rsp, %rbp
	.cfi_def_cfa_register %rbp
	subq	$16, %rsp
	movq	%rdi, -8(%rbp)
	movq	-8(%rbp), %rdi
	callq	_ZN5boost10shared_ptrIKNS_16exception_detail10clone_baseEED2Ev
	addq	$16, %rsp
	popq	%rbp
	.cfi_def_cfa %rsp, 8
	retq
.Lfunc_end71:
	.size	_ZN5boost13exception_ptrD2Ev, .Lfunc_end71-_ZN5boost13exception_ptrD2Ev
	.cfi_endproc
                                        # -- End function
	.section	.text._ZN5boost10shared_ptrIKNS_16exception_detail10clone_baseEED2Ev,"axG",@progbits,_ZN5boost10shared_ptrIKNS_16exception_detail10clone_baseEED2Ev,comdat
	.weak	_ZN5boost10shared_ptrIKNS_16exception_detail10clone_baseEED2Ev # -- Begin function _ZN5boost10shared_ptrIKNS_16exception_detail10clone_baseEED2Ev
	.p2align	4, 0x90
	.type	_ZN5boost10shared_ptrIKNS_16exception_detail10clone_baseEED2Ev,@function
_ZN5boost10shared_ptrIKNS_16exception_detail10clone_baseEED2Ev: # @_ZN5boost10shared_ptrIKNS_16exception_detail10clone_baseEED2Ev
	.cfi_startproc
# %bb.0:
	pushq	%rbp
	.cfi_def_cfa_offset 16
	.cfi_offset %rbp, -16
	movq	%rsp, %rbp
	.cfi_def_cfa_register %rbp
	subq	$16, %rsp
	movq	%rdi, -8(%rbp)
	movq	-8(%rbp), %rdi
	addq	$8, %rdi
	callq	_ZN5boost6detail12shared_countD2Ev
	addq	$16, %rsp
	popq	%rbp
	.cfi_def_cfa %rsp, 8
	retq
.Lfunc_end72:
	.size	_ZN5boost10shared_ptrIKNS_16exception_detail10clone_baseEED2Ev, .Lfunc_end72-_ZN5boost10shared_ptrIKNS_16exception_detail10clone_baseEED2Ev
	.cfi_endproc
                                        # -- End function
	.section	.text._ZN5boost6detail12shared_countD2Ev,"axG",@progbits,_ZN5boost6detail12shared_countD2Ev,comdat
	.weak	_ZN5boost6detail12shared_countD2Ev # -- Begin function _ZN5boost6detail12shared_countD2Ev
	.p2align	4, 0x90
	.type	_ZN5boost6detail12shared_countD2Ev,@function
_ZN5boost6detail12shared_countD2Ev:     # @_ZN5boost6detail12shared_countD2Ev
.Lfunc_begin14:
	.cfi_startproc
	.cfi_personality 3, __gxx_personality_v0
	.cfi_lsda 3, .Lexception14
# %bb.0:
	pushq	%rbp
	.cfi_def_cfa_offset 16
	.cfi_offset %rbp, -16
	movq	%rsp, %rbp
	.cfi_def_cfa_register %rbp
	subq	$16, %rsp
	movq	%rdi, -8(%rbp)
	movq	-8(%rbp), %rax
	cmpq	$0, (%rax)
	je	.LBB73_3
# %bb.1:
	movq	(%rax), %rdi
.Ltmp94:
	callq	_ZN5boost6detail15sp_counted_base7releaseEv
.Ltmp95:
	jmp	.LBB73_2
.LBB73_2:
	jmp	.LBB73_3
.LBB73_3:
	addq	$16, %rsp
	popq	%rbp
	.cfi_def_cfa %rsp, 8
	retq
.LBB73_4:
	.cfi_def_cfa %rbp, 16
.Ltmp96:
                                        # kill: killed $rdx
	movq	%rax, %rdi
	callq	__clang_call_terminate
.Lfunc_end73:
	.size	_ZN5boost6detail12shared_countD2Ev, .Lfunc_end73-_ZN5boost6detail12shared_countD2Ev
	.cfi_endproc
	.section	.gcc_except_table,"a",@progbits
	.p2align	2
GCC_except_table73:
.Lexception14:
	.byte	255                     # @LPStart Encoding = omit
	.byte	3                       # @TType Encoding = udata4
	.uleb128 .Lttbase2-.Lttbaseref2
.Lttbaseref2:
	.byte	1                       # Call site Encoding = uleb128
	.uleb128 .Lcst_end14-.Lcst_begin14
.Lcst_begin14:
	.uleb128 .Ltmp94-.Lfunc_begin14 # >> Call Site 1 <<
	.uleb128 .Ltmp95-.Ltmp94        #   Call between .Ltmp94 and .Ltmp95
	.uleb128 .Ltmp96-.Lfunc_begin14 #     jumps to .Ltmp96
	.byte	1                       #   On action: 1
.Lcst_end14:
	.byte	1                       # >> Action Record 1 <<
                                        #   Catch TypeInfo 1
	.byte	0                       #   No further actions
	.p2align	2
                                        # >> Catch TypeInfos <<
	.long	0                       # TypeInfo 1
.Lttbase2:
	.p2align	2
                                        # -- End function
	.section	.text._ZN5boost6detail15sp_counted_base7releaseEv,"axG",@progbits,_ZN5boost6detail15sp_counted_base7releaseEv,comdat
	.weak	_ZN5boost6detail15sp_counted_base7releaseEv # -- Begin function _ZN5boost6detail15sp_counted_base7releaseEv
	.p2align	4, 0x90
	.type	_ZN5boost6detail15sp_counted_base7releaseEv,@function
_ZN5boost6detail15sp_counted_base7releaseEv: # @_ZN5boost6detail15sp_counted_base7releaseEv
	.cfi_startproc
# %bb.0:
	pushq	%rbp
	.cfi_def_cfa_offset 16
	.cfi_offset %rbp, -16
	movq	%rsp, %rbp
	.cfi_def_cfa_register %rbp
	pushq	%rbx
	pushq	%rax
	.cfi_offset %rbx, -24
	movq	%rdi, -16(%rbp)
	movq	-16(%rbp), %rbx
	movq	%rbx, %rdi
	addq	$8, %rdi
	callq	_ZN5boost6detail16atomic_decrementEPU7_Atomici
	cmpl	$1, %eax
	jne	.LBB74_2
# %bb.1:
	movq	(%rbx), %rax
	movq	%rbx, %rdi
	callq	*16(%rax)
	movq	%rbx, %rdi
	callq	_ZN5boost6detail15sp_counted_base12weak_releaseEv
.LBB74_2:
	addq	$8, %rsp
	popq	%rbx
	popq	%rbp
	.cfi_def_cfa %rsp, 8
	retq
.Lfunc_end74:
	.size	_ZN5boost6detail15sp_counted_base7releaseEv, .Lfunc_end74-_ZN5boost6detail15sp_counted_base7releaseEv
	.cfi_endproc
                                        # -- End function
	.section	.text._ZN5boost6detail16atomic_decrementEPU7_Atomici,"axG",@progbits,_ZN5boost6detail16atomic_decrementEPU7_Atomici,comdat
	.weak	_ZN5boost6detail16atomic_decrementEPU7_Atomici # -- Begin function _ZN5boost6detail16atomic_decrementEPU7_Atomici
	.p2align	4, 0x90
	.type	_ZN5boost6detail16atomic_decrementEPU7_Atomici,@function
_ZN5boost6detail16atomic_decrementEPU7_Atomici: # @_ZN5boost6detail16atomic_decrementEPU7_Atomici
	.cfi_startproc
# %bb.0:
	pushq	%rbp
	.cfi_def_cfa_offset 16
	.cfi_offset %rbp, -16
	movq	%rsp, %rbp
	.cfi_def_cfa_register %rbp
	movq	%rdi, -16(%rbp)
	movq	-16(%rbp), %rax
	movl	$1, -8(%rbp)
	movl	-8(%rbp), %ecx
	negl	%ecx
	lock		xaddl	%ecx, (%rax)
	movl	%ecx, -4(%rbp)
	movl	-4(%rbp), %eax
	popq	%rbp
	.cfi_def_cfa %rsp, 8
	retq
.Lfunc_end75:
	.size	_ZN5boost6detail16atomic_decrementEPU7_Atomici, .Lfunc_end75-_ZN5boost6detail16atomic_decrementEPU7_Atomici
	.cfi_endproc
                                        # -- End function
	.section	.text._ZN5boost6detail15sp_counted_base12weak_releaseEv,"axG",@progbits,_ZN5boost6detail15sp_counted_base12weak_releaseEv,comdat
	.weak	_ZN5boost6detail15sp_counted_base12weak_releaseEv # -- Begin function _ZN5boost6detail15sp_counted_base12weak_releaseEv
	.p2align	4, 0x90
	.type	_ZN5boost6detail15sp_counted_base12weak_releaseEv,@function
_ZN5boost6detail15sp_counted_base12weak_releaseEv: # @_ZN5boost6detail15sp_counted_base12weak_releaseEv
	.cfi_startproc
# %bb.0:
	pushq	%rbp
	.cfi_def_cfa_offset 16
	.cfi_offset %rbp, -16
	movq	%rsp, %rbp
	.cfi_def_cfa_register %rbp
	pushq	%rbx
	pushq	%rax
	.cfi_offset %rbx, -24
	movq	%rdi, -16(%rbp)
	movq	-16(%rbp), %rbx
	movq	%rbx, %rdi
	addq	$12, %rdi
	callq	_ZN5boost6detail16atomic_decrementEPU7_Atomici
	cmpl	$1, %eax
	jne	.LBB76_2
# %bb.1:
	movq	(%rbx), %rax
	movq	%rbx, %rdi
	callq	*24(%rax)
.LBB76_2:
	addq	$8, %rsp
	popq	%rbx
	popq	%rbp
	.cfi_def_cfa %rsp, 8
	retq
.Lfunc_end76:
	.size	_ZN5boost6detail15sp_counted_base12weak_releaseEv, .Lfunc_end76-_ZN5boost6detail15sp_counted_base12weak_releaseEv
	.cfi_endproc
                                        # -- End function
	.section	.text._ZN5boost16exception_detail14bad_exception_C2Ev,"axG",@progbits,_ZN5boost16exception_detail14bad_exception_C2Ev,comdat
	.weak	_ZN5boost16exception_detail14bad_exception_C2Ev # -- Begin function _ZN5boost16exception_detail14bad_exception_C2Ev
	.p2align	4, 0x90
	.type	_ZN5boost16exception_detail14bad_exception_C2Ev,@function
_ZN5boost16exception_detail14bad_exception_C2Ev: # @_ZN5boost16exception_detail14bad_exception_C2Ev
	.cfi_startproc
# %bb.0:
	pushq	%rbp
	.cfi_def_cfa_offset 16
	.cfi_offset %rbp, -16
	movq	%rsp, %rbp
	.cfi_def_cfa_register %rbp
	pushq	%rbx
	pushq	%rax
	.cfi_offset %rbx, -24
	movq	%rdi, -16(%rbp)
	movq	-16(%rbp), %rbx
	movq	%rbx, %rdi
	callq	_ZN5boost9exceptionC2Ev
	movq	%rbx, %rdi
	addq	$40, %rdi
	callq	_ZNSt13bad_exceptionC2Ev
	movabsq	$_ZTVN5boost16exception_detail14bad_exception_E, %rax
	movq	%rax, %rcx
	addq	$48, %rcx
	addq	$16, %rax
	movq	%rax, (%rbx)
	movq	%rcx, 40(%rbx)
	addq	$8, %rsp
	popq	%rbx
	popq	%rbp
	.cfi_def_cfa %rsp, 8
	retq
.Lfunc_end77:
	.size	_ZN5boost16exception_detail14bad_exception_C2Ev, .Lfunc_end77-_ZN5boost16exception_detail14bad_exception_C2Ev
	.cfi_endproc
                                        # -- End function
	.section	.text._ZN5boost16exception_detail10clone_implINS0_14bad_exception_EEC1ERKS2_,"axG",@progbits,_ZN5boost16exception_detail10clone_implINS0_14bad_exception_EEC1ERKS2_,comdat
	.weak	_ZN5boost16exception_detail10clone_implINS0_14bad_exception_EEC1ERKS2_ # -- Begin function _ZN5boost16exception_detail10clone_implINS0_14bad_exception_EEC1ERKS2_
	.p2align	4, 0x90
	.type	_ZN5boost16exception_detail10clone_implINS0_14bad_exception_EEC1ERKS2_,@function
_ZN5boost16exception_detail10clone_implINS0_14bad_exception_EEC1ERKS2_: # @_ZN5boost16exception_detail10clone_implINS0_14bad_exception_EEC1ERKS2_
.Lfunc_begin15:
	.cfi_startproc
	.cfi_personality 3, __gxx_personality_v0
	.cfi_lsda 3, .Lexception15
# %bb.0:
	pushq	%rbp
	.cfi_def_cfa_offset 16
	.cfi_offset %rbp, -16
	movq	%rsp, %rbp
	.cfi_def_cfa_register %rbp
	pushq	%rbx
	subq	$40, %rsp
	.cfi_offset %rbx, -24
	movq	%rdi, -40(%rbp)
	movq	%rsi, -32(%rbp)
	movq	-40(%rbp), %rbx
	movq	%rbx, %rdi
	addq	$48, %rdi
	callq	_ZN5boost16exception_detail10clone_baseC2Ev
	movq	-32(%rbp), %rsi
.Ltmp97:
	movq	%rbx, %rdi
	callq	_ZN5boost16exception_detail14bad_exception_C2ERKS1_
.Ltmp98:
	jmp	.LBB78_1
.LBB78_1:
	movq	$_ZTVN5boost16exception_detail10clone_implINS0_14bad_exception_EEE+24, (%rbx)
	movq	$_ZTVN5boost16exception_detail10clone_implINS0_14bad_exception_EEE+72, 40(%rbx)
	movq	$_ZTVN5boost16exception_detail10clone_implINS0_14bad_exception_EEE+136, 48(%rbx)
	movq	-32(%rbp), %rsi
.Ltmp100:
	movq	%rbx, %rdi
	callq	_ZN5boost16exception_detail20copy_boost_exceptionEPNS_9exceptionEPKS1_
.Ltmp101:
	jmp	.LBB78_2
.LBB78_2:
	addq	$40, %rsp
	popq	%rbx
	popq	%rbp
	.cfi_def_cfa %rsp, 8
	retq
.LBB78_3:
	.cfi_def_cfa %rbp, 16
.Ltmp99:
	movq	%rax, -24(%rbp)
	movl	%edx, -12(%rbp)
	jmp	.LBB78_5
.LBB78_4:
.Ltmp102:
	movq	%rax, -24(%rbp)
	movl	%edx, -12(%rbp)
	movq	%rbx, %rdi
	callq	_ZN5boost16exception_detail14bad_exception_D2Ev
.LBB78_5:
	addq	$48, %rbx
	movq	%rbx, %rdi
	callq	_ZN5boost16exception_detail10clone_baseD2Ev
# %bb.6:
	movq	-24(%rbp), %rdi
	callq	_Unwind_Resume
.Lfunc_end78:
	.size	_ZN5boost16exception_detail10clone_implINS0_14bad_exception_EEC1ERKS2_, .Lfunc_end78-_ZN5boost16exception_detail10clone_implINS0_14bad_exception_EEC1ERKS2_
	.cfi_endproc
	.section	.gcc_except_table,"a",@progbits
	.p2align	2
GCC_except_table78:
.Lexception15:
	.byte	255                     # @LPStart Encoding = omit
	.byte	255                     # @TType Encoding = omit
	.byte	1                       # Call site Encoding = uleb128
	.uleb128 .Lcst_end15-.Lcst_begin15
.Lcst_begin15:
	.uleb128 .Ltmp97-.Lfunc_begin15 # >> Call Site 1 <<
	.uleb128 .Ltmp98-.Ltmp97        #   Call between .Ltmp97 and .Ltmp98
	.uleb128 .Ltmp99-.Lfunc_begin15 #     jumps to .Ltmp99
	.byte	0                       #   On action: cleanup
	.uleb128 .Ltmp100-.Lfunc_begin15 # >> Call Site 2 <<
	.uleb128 .Ltmp101-.Ltmp100      #   Call between .Ltmp100 and .Ltmp101
	.uleb128 .Ltmp102-.Lfunc_begin15 #     jumps to .Ltmp102
	.byte	0                       #   On action: cleanup
	.uleb128 .Ltmp101-.Lfunc_begin15 # >> Call Site 3 <<
	.uleb128 .Lfunc_end78-.Ltmp101  #   Call between .Ltmp101 and .Lfunc_end78
	.byte	0                       #     has no landing pad
	.byte	0                       #   On action: cleanup
.Lcst_end15:
	.p2align	2
                                        # -- End function
	.section	.text._ZN5boost10error_infoINS_15throw_function_EPKcEC2ES3_,"axG",@progbits,_ZN5boost10error_infoINS_15throw_function_EPKcEC2ES3_,comdat
	.weak	_ZN5boost10error_infoINS_15throw_function_EPKcEC2ES3_ # -- Begin function _ZN5boost10error_infoINS_15throw_function_EPKcEC2ES3_
	.p2align	4, 0x90
	.type	_ZN5boost10error_infoINS_15throw_function_EPKcEC2ES3_,@function
_ZN5boost10error_infoINS_15throw_function_EPKcEC2ES3_: # @_ZN5boost10error_infoINS_15throw_function_EPKcEC2ES3_
	.cfi_startproc
# %bb.0:
	pushq	%rbp
	.cfi_def_cfa_offset 16
	.cfi_offset %rbp, -16
	movq	%rsp, %rbp
	.cfi_def_cfa_register %rbp
	movq	%rdi, -16(%rbp)
	movq	%rsi, -8(%rbp)
	movq	-16(%rbp), %rax
	movq	-8(%rbp), %rcx
	movq	%rcx, (%rax)
	popq	%rbp
	.cfi_def_cfa %rsp, 8
	retq
.Lfunc_end79:
	.size	_ZN5boost10error_infoINS_15throw_function_EPKcEC2ES3_, .Lfunc_end79-_ZN5boost10error_infoINS_15throw_function_EPKcEC2ES3_
	.cfi_endproc
                                        # -- End function
	.section	.text._ZN5boostlsINS_16exception_detail10clone_implINS1_14bad_exception_EEENS_15throw_function_EPKcEENS_9enable_ifINS1_23derives_boost_exceptionIT_EERKSA_E4typeESD_ONS_10error_infoIT0_T1_EE,"axG",@progbits,_ZN5boostlsINS_16exception_detail10clone_implINS1_14bad_exception_EEENS_15throw_function_EPKcEENS_9enable_ifINS1_23derives_boost_exceptionIT_EERKSA_E4typeESD_ONS_10error_infoIT0_T1_EE,comdat
	.weak	_ZN5boostlsINS_16exception_detail10clone_implINS1_14bad_exception_EEENS_15throw_function_EPKcEENS_9enable_ifINS1_23derives_boost_exceptionIT_EERKSA_E4typeESD_ONS_10error_infoIT0_T1_EE # -- Begin function _ZN5boostlsINS_16exception_detail10clone_implINS1_14bad_exception_EEENS_15throw_function_EPKcEENS_9enable_ifINS1_23derives_boost_exceptionIT_EERKSA_E4typeESD_ONS_10error_infoIT0_T1_EE
	.p2align	4, 0x90
	.type	_ZN5boostlsINS_16exception_detail10clone_implINS1_14bad_exception_EEENS_15throw_function_EPKcEENS_9enable_ifINS1_23derives_boost_exceptionIT_EERKSA_E4typeESD_ONS_10error_infoIT0_T1_EE,@function
_ZN5boostlsINS_16exception_detail10clone_implINS1_14bad_exception_EEENS_15throw_function_EPKcEENS_9enable_ifINS1_23derives_boost_exceptionIT_EERKSA_E4typeESD_ONS_10error_infoIT0_T1_EE: # @_ZN5boostlsINS_16exception_detail10clone_implINS1_14bad_exception_EEENS_15throw_function_EPKcEENS_9enable_ifINS1_23derives_boost_exceptionIT_EERKSA_E4typeESD_ONS_10error_infoIT0_T1_EE
	.cfi_startproc
# %bb.0:
	pushq	%rbp
	.cfi_def_cfa_offset 16
	.cfi_offset %rbp, -16
	movq	%rsp, %rbp
	.cfi_def_cfa_register %rbp
	pushq	%rbx
	subq	$24, %rsp
	.cfi_offset %rbx, -24
	movq	%rdi, -24(%rbp)
	movq	%rsi, -16(%rbp)
	movq	-24(%rbp), %rbx
	movq	-16(%rbp), %rdi
	callq	_ZSt4moveIRN5boost10error_infoINS0_15throw_function_EPKcEEEONSt16remove_referenceIT_E4typeEOS8_
	movq	%rbx, %rdi
	movq	%rax, %rsi
	callq	_ZN5boost16exception_detail8set_infoINS0_10clone_implINS0_14bad_exception_EEENS_15throw_function_EPKcEERKT_SA_ONS_10error_infoIT0_T1_EE
	addq	$24, %rsp
	popq	%rbx
	popq	%rbp
	.cfi_def_cfa %rsp, 8
	retq
.Lfunc_end80:
	.size	_ZN5boostlsINS_16exception_detail10clone_implINS1_14bad_exception_EEENS_15throw_function_EPKcEENS_9enable_ifINS1_23derives_boost_exceptionIT_EERKSA_E4typeESD_ONS_10error_infoIT0_T1_EE, .Lfunc_end80-_ZN5boostlsINS_16exception_detail10clone_implINS1_14bad_exception_EEENS_15throw_function_EPKcEENS_9enable_ifINS1_23derives_boost_exceptionIT_EERKSA_E4typeESD_ONS_10error_infoIT0_T1_EE
	.cfi_endproc
                                        # -- End function
	.section	.text._ZN5boost10error_infoINS_11throw_file_EPKcEC2ES3_,"axG",@progbits,_ZN5boost10error_infoINS_11throw_file_EPKcEC2ES3_,comdat
	.weak	_ZN5boost10error_infoINS_11throw_file_EPKcEC2ES3_ # -- Begin function _ZN5boost10error_infoINS_11throw_file_EPKcEC2ES3_
	.p2align	4, 0x90
	.type	_ZN5boost10error_infoINS_11throw_file_EPKcEC2ES3_,@function
_ZN5boost10error_infoINS_11throw_file_EPKcEC2ES3_: # @_ZN5boost10error_infoINS_11throw_file_EPKcEC2ES3_
	.cfi_startproc
# %bb.0:
	pushq	%rbp
	.cfi_def_cfa_offset 16
	.cfi_offset %rbp, -16
	movq	%rsp, %rbp
	.cfi_def_cfa_register %rbp
	movq	%rdi, -16(%rbp)
	movq	%rsi, -8(%rbp)
	movq	-16(%rbp), %rax
	movq	-8(%rbp), %rcx
	movq	%rcx, (%rax)
	popq	%rbp
	.cfi_def_cfa %rsp, 8
	retq
.Lfunc_end81:
	.size	_ZN5boost10error_infoINS_11throw_file_EPKcEC2ES3_, .Lfunc_end81-_ZN5boost10error_infoINS_11throw_file_EPKcEC2ES3_
	.cfi_endproc
                                        # -- End function
	.section	.text._ZN5boostlsINS_16exception_detail10clone_implINS1_14bad_exception_EEENS_11throw_file_EPKcEENS_9enable_ifINS1_23derives_boost_exceptionIT_EERKSA_E4typeESD_ONS_10error_infoIT0_T1_EE,"axG",@progbits,_ZN5boostlsINS_16exception_detail10clone_implINS1_14bad_exception_EEENS_11throw_file_EPKcEENS_9enable_ifINS1_23derives_boost_exceptionIT_EERKSA_E4typeESD_ONS_10error_infoIT0_T1_EE,comdat
	.weak	_ZN5boostlsINS_16exception_detail10clone_implINS1_14bad_exception_EEENS_11throw_file_EPKcEENS_9enable_ifINS1_23derives_boost_exceptionIT_EERKSA_E4typeESD_ONS_10error_infoIT0_T1_EE # -- Begin function _ZN5boostlsINS_16exception_detail10clone_implINS1_14bad_exception_EEENS_11throw_file_EPKcEENS_9enable_ifINS1_23derives_boost_exceptionIT_EERKSA_E4typeESD_ONS_10error_infoIT0_T1_EE
	.p2align	4, 0x90
	.type	_ZN5boostlsINS_16exception_detail10clone_implINS1_14bad_exception_EEENS_11throw_file_EPKcEENS_9enable_ifINS1_23derives_boost_exceptionIT_EERKSA_E4typeESD_ONS_10error_infoIT0_T1_EE,@function
_ZN5boostlsINS_16exception_detail10clone_implINS1_14bad_exception_EEENS_11throw_file_EPKcEENS_9enable_ifINS1_23derives_boost_exceptionIT_EERKSA_E4typeESD_ONS_10error_infoIT0_T1_EE: # @_ZN5boostlsINS_16exception_detail10clone_implINS1_14bad_exception_EEENS_11throw_file_EPKcEENS_9enable_ifINS1_23derives_boost_exceptionIT_EERKSA_E4typeESD_ONS_10error_infoIT0_T1_EE
	.cfi_startproc
# %bb.0:
	pushq	%rbp
	.cfi_def_cfa_offset 16
	.cfi_offset %rbp, -16
	movq	%rsp, %rbp
	.cfi_def_cfa_register %rbp
	pushq	%rbx
	subq	$24, %rsp
	.cfi_offset %rbx, -24
	movq	%rdi, -24(%rbp)
	movq	%rsi, -16(%rbp)
	movq	-24(%rbp), %rbx
	movq	-16(%rbp), %rdi
	callq	_ZSt4moveIRN5boost10error_infoINS0_11throw_file_EPKcEEEONSt16remove_referenceIT_E4typeEOS8_
	movq	%rbx, %rdi
	movq	%rax, %rsi
	callq	_ZN5boost16exception_detail8set_infoINS0_10clone_implINS0_14bad_exception_EEENS_11throw_file_EPKcEERKT_SA_ONS_10error_infoIT0_T1_EE
	addq	$24, %rsp
	popq	%rbx
	popq	%rbp
	.cfi_def_cfa %rsp, 8
	retq
.Lfunc_end82:
	.size	_ZN5boostlsINS_16exception_detail10clone_implINS1_14bad_exception_EEENS_11throw_file_EPKcEENS_9enable_ifINS1_23derives_boost_exceptionIT_EERKSA_E4typeESD_ONS_10error_infoIT0_T1_EE, .Lfunc_end82-_ZN5boostlsINS_16exception_detail10clone_implINS1_14bad_exception_EEENS_11throw_file_EPKcEENS_9enable_ifINS1_23derives_boost_exceptionIT_EERKSA_E4typeESD_ONS_10error_infoIT0_T1_EE
	.cfi_endproc
                                        # -- End function
	.section	.text._ZN5boost10error_infoINS_11throw_line_EiEC2Ei,"axG",@progbits,_ZN5boost10error_infoINS_11throw_line_EiEC2Ei,comdat
	.weak	_ZN5boost10error_infoINS_11throw_line_EiEC2Ei # -- Begin function _ZN5boost10error_infoINS_11throw_line_EiEC2Ei
	.p2align	4, 0x90
	.type	_ZN5boost10error_infoINS_11throw_line_EiEC2Ei,@function
_ZN5boost10error_infoINS_11throw_line_EiEC2Ei: # @_ZN5boost10error_infoINS_11throw_line_EiEC2Ei
	.cfi_startproc
# %bb.0:
	pushq	%rbp
	.cfi_def_cfa_offset 16
	.cfi_offset %rbp, -16
	movq	%rsp, %rbp
	.cfi_def_cfa_register %rbp
	movq	%rdi, -16(%rbp)
	movl	%esi, -4(%rbp)
	movq	-16(%rbp), %rax
	movl	-4(%rbp), %ecx
	movl	%ecx, (%rax)
	popq	%rbp
	.cfi_def_cfa %rsp, 8
	retq
.Lfunc_end83:
	.size	_ZN5boost10error_infoINS_11throw_line_EiEC2Ei, .Lfunc_end83-_ZN5boost10error_infoINS_11throw_line_EiEC2Ei
	.cfi_endproc
                                        # -- End function
	.section	.text._ZN5boostlsINS_16exception_detail10clone_implINS1_14bad_exception_EEENS_11throw_line_EiEENS_9enable_ifINS1_23derives_boost_exceptionIT_EERKS8_E4typeESB_ONS_10error_infoIT0_T1_EE,"axG",@progbits,_ZN5boostlsINS_16exception_detail10clone_implINS1_14bad_exception_EEENS_11throw_line_EiEENS_9enable_ifINS1_23derives_boost_exceptionIT_EERKS8_E4typeESB_ONS_10error_infoIT0_T1_EE,comdat
	.weak	_ZN5boostlsINS_16exception_detail10clone_implINS1_14bad_exception_EEENS_11throw_line_EiEENS_9enable_ifINS1_23derives_boost_exceptionIT_EERKS8_E4typeESB_ONS_10error_infoIT0_T1_EE # -- Begin function _ZN5boostlsINS_16exception_detail10clone_implINS1_14bad_exception_EEENS_11throw_line_EiEENS_9enable_ifINS1_23derives_boost_exceptionIT_EERKS8_E4typeESB_ONS_10error_infoIT0_T1_EE
	.p2align	4, 0x90
	.type	_ZN5boostlsINS_16exception_detail10clone_implINS1_14bad_exception_EEENS_11throw_line_EiEENS_9enable_ifINS1_23derives_boost_exceptionIT_EERKS8_E4typeESB_ONS_10error_infoIT0_T1_EE,@function
_ZN5boostlsINS_16exception_detail10clone_implINS1_14bad_exception_EEENS_11throw_line_EiEENS_9enable_ifINS1_23derives_boost_exceptionIT_EERKS8_E4typeESB_ONS_10error_infoIT0_T1_EE: # @_ZN5boostlsINS_16exception_detail10clone_implINS1_14bad_exception_EEENS_11throw_line_EiEENS_9enable_ifINS1_23derives_boost_exceptionIT_EERKS8_E4typeESB_ONS_10error_infoIT0_T1_EE
	.cfi_startproc
# %bb.0:
	pushq	%rbp
	.cfi_def_cfa_offset 16
	.cfi_offset %rbp, -16
	movq	%rsp, %rbp
	.cfi_def_cfa_register %rbp
	pushq	%rbx
	subq	$24, %rsp
	.cfi_offset %rbx, -24
	movq	%rdi, -24(%rbp)
	movq	%rsi, -16(%rbp)
	movq	-24(%rbp), %rbx
	movq	-16(%rbp), %rdi
	callq	_ZSt4moveIRN5boost10error_infoINS0_11throw_line_EiEEEONSt16remove_referenceIT_E4typeEOS6_
	movq	%rbx, %rdi
	movq	%rax, %rsi
	callq	_ZN5boost16exception_detail8set_infoINS0_10clone_implINS0_14bad_exception_EEENS_11throw_line_EiEERKT_S8_ONS_10error_infoIT0_T1_EE
	addq	$24, %rsp
	popq	%rbx
	popq	%rbp
	.cfi_def_cfa %rsp, 8
	retq
.Lfunc_end84:
	.size	_ZN5boostlsINS_16exception_detail10clone_implINS1_14bad_exception_EEENS_11throw_line_EiEENS_9enable_ifINS1_23derives_boost_exceptionIT_EERKS8_E4typeESB_ONS_10error_infoIT0_T1_EE, .Lfunc_end84-_ZN5boostlsINS_16exception_detail10clone_implINS1_14bad_exception_EEENS_11throw_line_EiEENS_9enable_ifINS1_23derives_boost_exceptionIT_EERKS8_E4typeESB_ONS_10error_infoIT0_T1_EE
	.cfi_endproc
                                        # -- End function
	.section	.text._ZN5boost16exception_detail10clone_implINS0_14bad_exception_EEC1ERKS3_,"axG",@progbits,_ZN5boost16exception_detail10clone_implINS0_14bad_exception_EEC1ERKS3_,comdat
	.weak	_ZN5boost16exception_detail10clone_implINS0_14bad_exception_EEC1ERKS3_ # -- Begin function _ZN5boost16exception_detail10clone_implINS0_14bad_exception_EEC1ERKS3_
	.p2align	4, 0x90
	.type	_ZN5boost16exception_detail10clone_implINS0_14bad_exception_EEC1ERKS3_,@function
_ZN5boost16exception_detail10clone_implINS0_14bad_exception_EEC1ERKS3_: # @_ZN5boost16exception_detail10clone_implINS0_14bad_exception_EEC1ERKS3_
.Lfunc_begin16:
	.cfi_startproc
	.cfi_personality 3, __gxx_personality_v0
	.cfi_lsda 3, .Lexception16
# %bb.0:
	pushq	%rbp
	.cfi_def_cfa_offset 16
	.cfi_offset %rbp, -16
	movq	%rsp, %rbp
	.cfi_def_cfa_register %rbp
	pushq	%rbx
	subq	$40, %rsp
	.cfi_offset %rbx, -24
	movq	%rdi, -32(%rbp)
	movq	%rsi, -16(%rbp)
	movq	-32(%rbp), %rbx
	movq	%rbx, %rdi
	addq	$48, %rdi
	movq	-16(%rbp), %rsi
	movq	(%rsi), %rax
	movq	-24(%rax), %rax
	addq	%rax, %rsi
	callq	_ZN5boost16exception_detail10clone_baseC2ERKS1_
	movq	-16(%rbp), %rsi
.Ltmp103:
	movq	%rbx, %rdi
	callq	_ZN5boost16exception_detail14bad_exception_C2ERKS1_
.Ltmp104:
	jmp	.LBB85_1
.LBB85_1:
	movabsq	$_ZTVN5boost16exception_detail10clone_implINS0_14bad_exception_EEE, %rax
	movq	%rax, %rcx
	addq	$136, %rcx
	movq	%rax, %rdx
	addq	$72, %rdx
	addq	$24, %rax
	movq	%rax, (%rbx)
	movq	%rdx, 40(%rbx)
	movq	%rcx, 48(%rbx)
	addq	$40, %rsp
	popq	%rbx
	popq	%rbp
	.cfi_def_cfa %rsp, 8
	retq
.LBB85_2:
	.cfi_def_cfa %rbp, 16
.Ltmp105:
	movq	%rax, -24(%rbp)
	movl	%edx, -36(%rbp)
	addq	$48, %rbx
	movq	%rbx, %rdi
	callq	_ZN5boost16exception_detail10clone_baseD2Ev
# %bb.3:
	movq	-24(%rbp), %rdi
	callq	_Unwind_Resume
.Lfunc_end85:
	.size	_ZN5boost16exception_detail10clone_implINS0_14bad_exception_EEC1ERKS3_, .Lfunc_end85-_ZN5boost16exception_detail10clone_implINS0_14bad_exception_EEC1ERKS3_
	.cfi_endproc
	.section	.gcc_except_table,"a",@progbits
	.p2align	2
GCC_except_table85:
.Lexception16:
	.byte	255                     # @LPStart Encoding = omit
	.byte	255                     # @TType Encoding = omit
	.byte	1                       # Call site Encoding = uleb128
	.uleb128 .Lcst_end16-.Lcst_begin16
.Lcst_begin16:
	.uleb128 .Ltmp103-.Lfunc_begin16 # >> Call Site 1 <<
	.uleb128 .Ltmp104-.Ltmp103      #   Call between .Ltmp103 and .Ltmp104
	.uleb128 .Ltmp105-.Lfunc_begin16 #     jumps to .Ltmp105
	.byte	0                       #   On action: cleanup
	.uleb128 .Ltmp104-.Lfunc_begin16 # >> Call Site 2 <<
	.uleb128 .Lfunc_end85-.Ltmp104  #   Call between .Ltmp104 and .Lfunc_end85
	.byte	0                       #     has no landing pad
	.byte	0                       #   On action: cleanup
.Lcst_end16:
	.p2align	2
                                        # -- End function
	.section	.text._ZN5boost10shared_ptrIKNS_16exception_detail10clone_baseEEC2INS1_10clone_implINS1_14bad_exception_EEEEEPT_,"axG",@progbits,_ZN5boost10shared_ptrIKNS_16exception_detail10clone_baseEEC2INS1_10clone_implINS1_14bad_exception_EEEEEPT_,comdat
	.weak	_ZN5boost10shared_ptrIKNS_16exception_detail10clone_baseEEC2INS1_10clone_implINS1_14bad_exception_EEEEEPT_ # -- Begin function _ZN5boost10shared_ptrIKNS_16exception_detail10clone_baseEEC2INS1_10clone_implINS1_14bad_exception_EEEEEPT_
	.p2align	4, 0x90
	.type	_ZN5boost10shared_ptrIKNS_16exception_detail10clone_baseEEC2INS1_10clone_implINS1_14bad_exception_EEEEEPT_,@function
_ZN5boost10shared_ptrIKNS_16exception_detail10clone_baseEEC2INS1_10clone_implINS1_14bad_exception_EEEEEPT_: # @_ZN5boost10shared_ptrIKNS_16exception_detail10clone_baseEEC2INS1_10clone_implINS1_14bad_exception_EEEEEPT_
.Lfunc_begin17:
	.cfi_startproc
	.cfi_personality 3, __gxx_personality_v0
	.cfi_lsda 3, .Lexception17
# %bb.0:
	pushq	%rbp
	.cfi_def_cfa_offset 16
	.cfi_offset %rbp, -16
	movq	%rsp, %rbp
	.cfi_def_cfa_register %rbp
	pushq	%r14
	pushq	%rbx
	subq	$32, %rsp
	.cfi_offset %rbx, -32
	.cfi_offset %r14, -24
	xorl	%eax, %eax
	movq	%rdi, -40(%rbp)
	movq	%rsi, -24(%rbp)
	movq	-40(%rbp), %r14
	movq	-24(%rbp), %rcx
	cmpq	$0, %rcx
	je	.LBB86_2
# %bb.1:
	movq	(%rcx), %rax
	movq	-24(%rax), %rax
	addq	%rax, %rcx
	movq	%rcx, %rax
.LBB86_2:
	movq	%rax, (%r14)
	movq	%r14, %rbx
	addq	$8, %rbx
	movq	%rbx, %rdi
	callq	_ZN5boost6detail12shared_countC2Ev
	movq	-24(%rbp), %rsi
.Ltmp106:
	movq	%r14, %rdi
	movq	%rbx, %rdx
	callq	_ZN5boost6detail20sp_pointer_constructIKNS_16exception_detail10clone_baseENS2_10clone_implINS2_14bad_exception_EEEEEvPNS_10shared_ptrIT_EEPT0_RNS0_12shared_countE
.Ltmp107:
	jmp	.LBB86_3
.LBB86_3:
	addq	$32, %rsp
	popq	%rbx
	popq	%r14
	popq	%rbp
	.cfi_def_cfa %rsp, 8
	retq
.LBB86_4:
	.cfi_def_cfa %rbp, 16
.Ltmp108:
	movq	%rax, -32(%rbp)
	movl	%edx, -44(%rbp)
	movq	%rbx, %rdi
	callq	_ZN5boost6detail12shared_countD2Ev
# %bb.5:
	movq	-32(%rbp), %rdi
	callq	_Unwind_Resume
.Lfunc_end86:
	.size	_ZN5boost10shared_ptrIKNS_16exception_detail10clone_baseEEC2INS1_10clone_implINS1_14bad_exception_EEEEEPT_, .Lfunc_end86-_ZN5boost10shared_ptrIKNS_16exception_detail10clone_baseEEC2INS1_10clone_implINS1_14bad_exception_EEEEEPT_
	.cfi_endproc
	.section	.gcc_except_table,"a",@progbits
	.p2align	2
GCC_except_table86:
.Lexception17:
	.byte	255                     # @LPStart Encoding = omit
	.byte	255                     # @TType Encoding = omit
	.byte	1                       # Call site Encoding = uleb128
	.uleb128 .Lcst_end17-.Lcst_begin17
.Lcst_begin17:
	.uleb128 .Ltmp106-.Lfunc_begin17 # >> Call Site 1 <<
	.uleb128 .Ltmp107-.Ltmp106      #   Call between .Ltmp106 and .Ltmp107
	.uleb128 .Ltmp108-.Lfunc_begin17 #     jumps to .Ltmp108
	.byte	0                       #   On action: cleanup
	.uleb128 .Ltmp107-.Lfunc_begin17 # >> Call Site 2 <<
	.uleb128 .Lfunc_end86-.Ltmp107  #   Call between .Ltmp107 and .Lfunc_end86
	.byte	0                       #     has no landing pad
	.byte	0                       #   On action: cleanup
.Lcst_end17:
	.p2align	2
                                        # -- End function
	.section	.text._ZN5boost13exception_ptrC2ERKNS_10shared_ptrIKNS_16exception_detail10clone_baseEEE,"axG",@progbits,_ZN5boost13exception_ptrC2ERKNS_10shared_ptrIKNS_16exception_detail10clone_baseEEE,comdat
	.weak	_ZN5boost13exception_ptrC2ERKNS_10shared_ptrIKNS_16exception_detail10clone_baseEEE # -- Begin function _ZN5boost13exception_ptrC2ERKNS_10shared_ptrIKNS_16exception_detail10clone_baseEEE
	.p2align	4, 0x90
	.type	_ZN5boost13exception_ptrC2ERKNS_10shared_ptrIKNS_16exception_detail10clone_baseEEE,@function
_ZN5boost13exception_ptrC2ERKNS_10shared_ptrIKNS_16exception_detail10clone_baseEEE: # @_ZN5boost13exception_ptrC2ERKNS_10shared_ptrIKNS_16exception_detail10clone_baseEEE
	.cfi_startproc
# %bb.0:
	pushq	%rbp
	.cfi_def_cfa_offset 16
	.cfi_offset %rbp, -16
	movq	%rsp, %rbp
	.cfi_def_cfa_register %rbp
	subq	$16, %rsp
	movq	%rdi, -16(%rbp)
	movq	%rsi, -8(%rbp)
	movq	-16(%rbp), %rdi
	movq	-8(%rbp), %rsi
	callq	_ZN5boost10shared_ptrIKNS_16exception_detail10clone_baseEEC2ERKS4_
	addq	$16, %rsp
	popq	%rbp
	.cfi_def_cfa %rsp, 8
	retq
.Lfunc_end87:
	.size	_ZN5boost13exception_ptrC2ERKNS_10shared_ptrIKNS_16exception_detail10clone_baseEEE, .Lfunc_end87-_ZN5boost13exception_ptrC2ERKNS_10shared_ptrIKNS_16exception_detail10clone_baseEEE
	.cfi_endproc
                                        # -- End function
	.section	.text._ZN5boost13exception_ptrC2ERKS0_,"axG",@progbits,_ZN5boost13exception_ptrC2ERKS0_,comdat
	.weak	_ZN5boost13exception_ptrC2ERKS0_ # -- Begin function _ZN5boost13exception_ptrC2ERKS0_
	.p2align	4, 0x90
	.type	_ZN5boost13exception_ptrC2ERKS0_,@function
_ZN5boost13exception_ptrC2ERKS0_:       # @_ZN5boost13exception_ptrC2ERKS0_
	.cfi_startproc
# %bb.0:
	pushq	%rbp
	.cfi_def_cfa_offset 16
	.cfi_offset %rbp, -16
	movq	%rsp, %rbp
	.cfi_def_cfa_register %rbp
	subq	$16, %rsp
	movq	%rdi, -16(%rbp)
	movq	%rsi, -8(%rbp)
	movq	-16(%rbp), %rdi
	movq	-8(%rbp), %rsi
	callq	_ZN5boost10shared_ptrIKNS_16exception_detail10clone_baseEEC2ERKS4_
	addq	$16, %rsp
	popq	%rbp
	.cfi_def_cfa %rsp, 8
	retq
.Lfunc_end88:
	.size	_ZN5boost13exception_ptrC2ERKS0_, .Lfunc_end88-_ZN5boost13exception_ptrC2ERKS0_
	.cfi_endproc
                                        # -- End function
	.section	.text._ZN5boost16exception_detail10clone_implINS0_14bad_exception_EED1Ev,"axG",@progbits,_ZN5boost16exception_detail10clone_implINS0_14bad_exception_EED1Ev,comdat
	.weak	_ZN5boost16exception_detail10clone_implINS0_14bad_exception_EED1Ev # -- Begin function _ZN5boost16exception_detail10clone_implINS0_14bad_exception_EED1Ev
	.p2align	4, 0x90
	.type	_ZN5boost16exception_detail10clone_implINS0_14bad_exception_EED1Ev,@function
_ZN5boost16exception_detail10clone_implINS0_14bad_exception_EED1Ev: # @_ZN5boost16exception_detail10clone_implINS0_14bad_exception_EED1Ev
	.cfi_startproc
# %bb.0:
	pushq	%rbp
	.cfi_def_cfa_offset 16
	.cfi_offset %rbp, -16
	movq	%rsp, %rbp
	.cfi_def_cfa_register %rbp
	pushq	%rbx
	pushq	%rax
	.cfi_offset %rbx, -24
	movq	%rdi, -16(%rbp)
	movq	-16(%rbp), %rbx
	movq	%rbx, %rdi
	movabsq	$_ZTTN5boost16exception_detail10clone_implINS0_14bad_exception_EEE, %rsi
	callq	_ZN5boost16exception_detail10clone_implINS0_14bad_exception_EED2Ev
	addq	$48, %rbx
	movq	%rbx, %rdi
	callq	_ZN5boost16exception_detail10clone_baseD2Ev
	addq	$8, %rsp
	popq	%rbx
	popq	%rbp
	.cfi_def_cfa %rsp, 8
	retq
.Lfunc_end89:
	.size	_ZN5boost16exception_detail10clone_implINS0_14bad_exception_EED1Ev, .Lfunc_end89-_ZN5boost16exception_detail10clone_implINS0_14bad_exception_EED1Ev
	.cfi_endproc
                                        # -- End function
	.section	.text._ZN5boost16exception_detail14bad_exception_D2Ev,"axG",@progbits,_ZN5boost16exception_detail14bad_exception_D2Ev,comdat
	.weak	_ZN5boost16exception_detail14bad_exception_D2Ev # -- Begin function _ZN5boost16exception_detail14bad_exception_D2Ev
	.p2align	4, 0x90
	.type	_ZN5boost16exception_detail14bad_exception_D2Ev,@function
_ZN5boost16exception_detail14bad_exception_D2Ev: # @_ZN5boost16exception_detail14bad_exception_D2Ev
	.cfi_startproc
# %bb.0:
	pushq	%rbp
	.cfi_def_cfa_offset 16
	.cfi_offset %rbp, -16
	movq	%rsp, %rbp
	.cfi_def_cfa_register %rbp
	pushq	%rbx
	pushq	%rax
	.cfi_offset %rbx, -24
	movq	%rdi, -16(%rbp)
	movq	-16(%rbp), %rbx
	movq	%rbx, %rdi
	addq	$40, %rdi
	callq	_ZNSt13bad_exceptionD2Ev
	movq	%rbx, %rdi
	callq	_ZN5boost9exceptionD2Ev
	addq	$8, %rsp
	popq	%rbx
	popq	%rbp
	.cfi_def_cfa %rsp, 8
	retq
.Lfunc_end90:
	.size	_ZN5boost16exception_detail14bad_exception_D2Ev, .Lfunc_end90-_ZN5boost16exception_detail14bad_exception_D2Ev
	.cfi_endproc
                                        # -- End function
	.section	.text._ZN5boost16exception_detail10clone_implINS0_14bad_exception_EED2Ev,"axG",@progbits,_ZN5boost16exception_detail10clone_implINS0_14bad_exception_EED2Ev,comdat
	.weak	_ZN5boost16exception_detail10clone_implINS0_14bad_exception_EED2Ev # -- Begin function _ZN5boost16exception_detail10clone_implINS0_14bad_exception_EED2Ev
	.p2align	4, 0x90
	.type	_ZN5boost16exception_detail10clone_implINS0_14bad_exception_EED2Ev,@function
_ZN5boost16exception_detail10clone_implINS0_14bad_exception_EED2Ev: # @_ZN5boost16exception_detail10clone_implINS0_14bad_exception_EED2Ev
	.cfi_startproc
# %bb.0:
	pushq	%rbp
	.cfi_def_cfa_offset 16
	.cfi_offset %rbp, -16
	movq	%rsp, %rbp
	.cfi_def_cfa_register %rbp
	subq	$16, %rsp
	movq	%rdi, -8(%rbp)
	movq	%rsi, -16(%rbp)
	movq	-8(%rbp), %rdi
	callq	_ZN5boost16exception_detail14bad_exception_D2Ev
	addq	$16, %rsp
	popq	%rbp
	.cfi_def_cfa %rsp, 8
	retq
.Lfunc_end91:
	.size	_ZN5boost16exception_detail10clone_implINS0_14bad_exception_EED2Ev, .Lfunc_end91-_ZN5boost16exception_detail10clone_implINS0_14bad_exception_EED2Ev
	.cfi_endproc
                                        # -- End function
	.section	.text._ZN5boost16exception_detail10clone_implINS0_14bad_exception_EED0Ev,"axG",@progbits,_ZN5boost16exception_detail10clone_implINS0_14bad_exception_EED0Ev,comdat
	.weak	_ZN5boost16exception_detail10clone_implINS0_14bad_exception_EED0Ev # -- Begin function _ZN5boost16exception_detail10clone_implINS0_14bad_exception_EED0Ev
	.p2align	4, 0x90
	.type	_ZN5boost16exception_detail10clone_implINS0_14bad_exception_EED0Ev,@function
_ZN5boost16exception_detail10clone_implINS0_14bad_exception_EED0Ev: # @_ZN5boost16exception_detail10clone_implINS0_14bad_exception_EED0Ev
	.cfi_startproc
# %bb.0:
	pushq	%rbp
	.cfi_def_cfa_offset 16
	.cfi_offset %rbp, -16
	movq	%rsp, %rbp
	.cfi_def_cfa_register %rbp
	pushq	%rbx
	pushq	%rax
	.cfi_offset %rbx, -24
	movq	%rdi, -16(%rbp)
	movq	-16(%rbp), %rbx
	movq	%rbx, %rdi
	callq	_ZN5boost16exception_detail10clone_implINS0_14bad_exception_EED1Ev
	movq	%rbx, %rdi
	callq	_ZdlPv
	addq	$8, %rsp
	popq	%rbx
	popq	%rbp
	.cfi_def_cfa %rsp, 8
	retq
.Lfunc_end92:
	.size	_ZN5boost16exception_detail10clone_implINS0_14bad_exception_EED0Ev, .Lfunc_end92-_ZN5boost16exception_detail10clone_implINS0_14bad_exception_EED0Ev
	.cfi_endproc
                                        # -- End function
	.section	.text._ZNK5boost16exception_detail10clone_implINS0_14bad_exception_EE5cloneEv,"axG",@progbits,_ZNK5boost16exception_detail10clone_implINS0_14bad_exception_EE5cloneEv,comdat
	.weak	_ZNK5boost16exception_detail10clone_implINS0_14bad_exception_EE5cloneEv # -- Begin function _ZNK5boost16exception_detail10clone_implINS0_14bad_exception_EE5cloneEv
	.p2align	4, 0x90
	.type	_ZNK5boost16exception_detail10clone_implINS0_14bad_exception_EE5cloneEv,@function
_ZNK5boost16exception_detail10clone_implINS0_14bad_exception_EE5cloneEv: # @_ZNK5boost16exception_detail10clone_implINS0_14bad_exception_EE5cloneEv
.Lfunc_begin18:
	.cfi_startproc
	.cfi_personality 3, __gxx_personality_v0
	.cfi_lsda 3, .Lexception18
# %bb.0:
	pushq	%rbp
	.cfi_def_cfa_offset 16
	.cfi_offset %rbp, -16
	movq	%rsp, %rbp
	.cfi_def_cfa_register %rbp
	pushq	%r14
	pushq	%rbx
	subq	$32, %rsp
	.cfi_offset %rbx, -32
	.cfi_offset %r14, -24
	movq	%rdi, -32(%rbp)
	movq	-32(%rbp), %r14
	movl	$56, %edi
	callq	_Znwm
	movq	%rax, %rbx
.Ltmp109:
	movq	%rbx, %rdi
	movq	%r14, %rsi
	callq	_ZN5boost16exception_detail10clone_implINS0_14bad_exception_EEC1ERKS3_NS3_9clone_tagE
.Ltmp110:
	jmp	.LBB93_1
.LBB93_1:
	xorl	%eax, %eax
	cmpq	$0, %rbx
	je	.LBB93_3
# %bb.2:
	movq	(%rbx), %rax
	movq	-24(%rax), %rax
	addq	%rax, %rbx
	movq	%rbx, %rax
.LBB93_3:
	addq	$32, %rsp
	popq	%rbx
	popq	%r14
	popq	%rbp
	.cfi_def_cfa %rsp, 8
	retq
.LBB93_4:
	.cfi_def_cfa %rbp, 16
.Ltmp111:
	movq	%rax, -24(%rbp)
	movl	%edx, -36(%rbp)
	movq	%rbx, %rdi
	callq	_ZdlPv
# %bb.5:
	movq	-24(%rbp), %rdi
	callq	_Unwind_Resume
.Lfunc_end93:
	.size	_ZNK5boost16exception_detail10clone_implINS0_14bad_exception_EE5cloneEv, .Lfunc_end93-_ZNK5boost16exception_detail10clone_implINS0_14bad_exception_EE5cloneEv
	.cfi_endproc
	.section	.gcc_except_table,"a",@progbits
	.p2align	2
GCC_except_table93:
.Lexception18:
	.byte	255                     # @LPStart Encoding = omit
	.byte	255                     # @TType Encoding = omit
	.byte	1                       # Call site Encoding = uleb128
	.uleb128 .Lcst_end18-.Lcst_begin18
.Lcst_begin18:
	.uleb128 .Lfunc_begin18-.Lfunc_begin18 # >> Call Site 1 <<
	.uleb128 .Ltmp109-.Lfunc_begin18 #   Call between .Lfunc_begin18 and .Ltmp109
	.byte	0                       #     has no landing pad
	.byte	0                       #   On action: cleanup
	.uleb128 .Ltmp109-.Lfunc_begin18 # >> Call Site 2 <<
	.uleb128 .Ltmp110-.Ltmp109      #   Call between .Ltmp109 and .Ltmp110
	.uleb128 .Ltmp111-.Lfunc_begin18 #     jumps to .Ltmp111
	.byte	0                       #   On action: cleanup
	.uleb128 .Ltmp110-.Lfunc_begin18 # >> Call Site 3 <<
	.uleb128 .Lfunc_end93-.Ltmp110  #   Call between .Ltmp110 and .Lfunc_end93
	.byte	0                       #     has no landing pad
	.byte	0                       #   On action: cleanup
.Lcst_end18:
	.p2align	2
                                        # -- End function
	.section	.text._ZNK5boost16exception_detail10clone_implINS0_14bad_exception_EE7rethrowEv,"axG",@progbits,_ZNK5boost16exception_detail10clone_implINS0_14bad_exception_EE7rethrowEv,comdat
	.weak	_ZNK5boost16exception_detail10clone_implINS0_14bad_exception_EE7rethrowEv # -- Begin function _ZNK5boost16exception_detail10clone_implINS0_14bad_exception_EE7rethrowEv
	.p2align	4, 0x90
	.type	_ZNK5boost16exception_detail10clone_implINS0_14bad_exception_EE7rethrowEv,@function
_ZNK5boost16exception_detail10clone_implINS0_14bad_exception_EE7rethrowEv: # @_ZNK5boost16exception_detail10clone_implINS0_14bad_exception_EE7rethrowEv
.Lfunc_begin19:
	.cfi_startproc
	.cfi_personality 3, __gxx_personality_v0
	.cfi_lsda 3, .Lexception19
# %bb.0:
	pushq	%rbp
	.cfi_def_cfa_offset 16
	.cfi_offset %rbp, -16
	movq	%rsp, %rbp
	.cfi_def_cfa_register %rbp
	pushq	%r14
	pushq	%rbx
	subq	$32, %rsp
	.cfi_offset %rbx, -32
	.cfi_offset %r14, -24
	movq	%rdi, -32(%rbp)
	movq	-32(%rbp), %r14
	movl	$56, %edi
	callq	__cxa_allocate_exception
	movq	%rax, %rbx
.Ltmp112:
	movq	%rbx, %rdi
	movq	%r14, %rsi
	callq	_ZN5boost16exception_detail10clone_implINS0_14bad_exception_EEC1ERKS3_
.Ltmp113:
	jmp	.LBB94_1
.LBB94_1:
	movabsq	$_ZTIN5boost16exception_detail10clone_implINS0_14bad_exception_EEE, %rsi
	movabsq	$_ZN5boost16exception_detail10clone_implINS0_14bad_exception_EED1Ev, %rdx
	movq	%rbx, %rdi
	callq	__cxa_throw
.LBB94_2:
.Ltmp114:
	movq	%rax, -24(%rbp)
	movl	%edx, -36(%rbp)
	movq	%rbx, %rdi
	callq	__cxa_free_exception
# %bb.3:
	movq	-24(%rbp), %rdi
	callq	_Unwind_Resume
.Lfunc_end94:
	.size	_ZNK5boost16exception_detail10clone_implINS0_14bad_exception_EE7rethrowEv, .Lfunc_end94-_ZNK5boost16exception_detail10clone_implINS0_14bad_exception_EE7rethrowEv
	.cfi_endproc
	.section	.gcc_except_table,"a",@progbits
	.p2align	2
GCC_except_table94:
.Lexception19:
	.byte	255                     # @LPStart Encoding = omit
	.byte	255                     # @TType Encoding = omit
	.byte	1                       # Call site Encoding = uleb128
	.uleb128 .Lcst_end19-.Lcst_begin19
.Lcst_begin19:
	.uleb128 .Lfunc_begin19-.Lfunc_begin19 # >> Call Site 1 <<
	.uleb128 .Ltmp112-.Lfunc_begin19 #   Call between .Lfunc_begin19 and .Ltmp112
	.byte	0                       #     has no landing pad
	.byte	0                       #   On action: cleanup
	.uleb128 .Ltmp112-.Lfunc_begin19 # >> Call Site 2 <<
	.uleb128 .Ltmp113-.Ltmp112      #   Call between .Ltmp112 and .Ltmp113
	.uleb128 .Ltmp114-.Lfunc_begin19 #     jumps to .Ltmp114
	.byte	0                       #   On action: cleanup
	.uleb128 .Ltmp113-.Lfunc_begin19 # >> Call Site 3 <<
	.uleb128 .Lfunc_end94-.Ltmp113  #   Call between .Ltmp113 and .Lfunc_end94
	.byte	0                       #     has no landing pad
	.byte	0                       #   On action: cleanup
.Lcst_end19:
	.p2align	2
                                        # -- End function
	.section	.text._ZThn40_N5boost16exception_detail10clone_implINS0_14bad_exception_EED1Ev,"axG",@progbits,_ZThn40_N5boost16exception_detail10clone_implINS0_14bad_exception_EED1Ev,comdat
	.weak	_ZThn40_N5boost16exception_detail10clone_implINS0_14bad_exception_EED1Ev # -- Begin function _ZThn40_N5boost16exception_detail10clone_implINS0_14bad_exception_EED1Ev
	.p2align	4, 0x90
	.type	_ZThn40_N5boost16exception_detail10clone_implINS0_14bad_exception_EED1Ev,@function
_ZThn40_N5boost16exception_detail10clone_implINS0_14bad_exception_EED1Ev: # @_ZThn40_N5boost16exception_detail10clone_implINS0_14bad_exception_EED1Ev
	.cfi_startproc
# %bb.0:
	pushq	%rbp
	.cfi_def_cfa_offset 16
	.cfi_offset %rbp, -16
	movq	%rsp, %rbp
	.cfi_def_cfa_register %rbp
	movq	%rdi, -8(%rbp)
	movq	-8(%rbp), %rdi
	addq	$-40, %rdi
	popq	%rbp
	.cfi_def_cfa %rsp, 8
	jmp	_ZN5boost16exception_detail10clone_implINS0_14bad_exception_EED1Ev # TAILCALL
.Lfunc_end95:
	.size	_ZThn40_N5boost16exception_detail10clone_implINS0_14bad_exception_EED1Ev, .Lfunc_end95-_ZThn40_N5boost16exception_detail10clone_implINS0_14bad_exception_EED1Ev
	.cfi_endproc
                                        # -- End function
	.section	.text._ZThn40_N5boost16exception_detail10clone_implINS0_14bad_exception_EED0Ev,"axG",@progbits,_ZThn40_N5boost16exception_detail10clone_implINS0_14bad_exception_EED0Ev,comdat
	.weak	_ZThn40_N5boost16exception_detail10clone_implINS0_14bad_exception_EED0Ev # -- Begin function _ZThn40_N5boost16exception_detail10clone_implINS0_14bad_exception_EED0Ev
	.p2align	4, 0x90
	.type	_ZThn40_N5boost16exception_detail10clone_implINS0_14bad_exception_EED0Ev,@function
_ZThn40_N5boost16exception_detail10clone_implINS0_14bad_exception_EED0Ev: # @_ZThn40_N5boost16exception_detail10clone_implINS0_14bad_exception_EED0Ev
	.cfi_startproc
# %bb.0:
	pushq	%rbp
	.cfi_def_cfa_offset 16
	.cfi_offset %rbp, -16
	movq	%rsp, %rbp
	.cfi_def_cfa_register %rbp
	movq	%rdi, -8(%rbp)
	movq	-8(%rbp), %rdi
	addq	$-40, %rdi
	popq	%rbp
	.cfi_def_cfa %rsp, 8
	jmp	_ZN5boost16exception_detail10clone_implINS0_14bad_exception_EED0Ev # TAILCALL
.Lfunc_end96:
	.size	_ZThn40_N5boost16exception_detail10clone_implINS0_14bad_exception_EED0Ev, .Lfunc_end96-_ZThn40_N5boost16exception_detail10clone_implINS0_14bad_exception_EED0Ev
	.cfi_endproc
                                        # -- End function
	.section	.text._ZTv0_n24_NK5boost16exception_detail10clone_implINS0_14bad_exception_EE5cloneEv,"axG",@progbits,_ZTv0_n24_NK5boost16exception_detail10clone_implINS0_14bad_exception_EE5cloneEv,comdat
	.weak	_ZTv0_n24_NK5boost16exception_detail10clone_implINS0_14bad_exception_EE5cloneEv # -- Begin function _ZTv0_n24_NK5boost16exception_detail10clone_implINS0_14bad_exception_EE5cloneEv
	.p2align	4, 0x90
	.type	_ZTv0_n24_NK5boost16exception_detail10clone_implINS0_14bad_exception_EE5cloneEv,@function
_ZTv0_n24_NK5boost16exception_detail10clone_implINS0_14bad_exception_EE5cloneEv: # @_ZTv0_n24_NK5boost16exception_detail10clone_implINS0_14bad_exception_EE5cloneEv
	.cfi_startproc
# %bb.0:
	pushq	%rbp
	.cfi_def_cfa_offset 16
	.cfi_offset %rbp, -16
	movq	%rsp, %rbp
	.cfi_def_cfa_register %rbp
	movq	%rdi, -8(%rbp)
	movq	-8(%rbp), %rdi
	movq	(%rdi), %rax
	movq	-24(%rax), %rax
	addq	%rax, %rdi
	popq	%rbp
	.cfi_def_cfa %rsp, 8
	jmp	_ZNK5boost16exception_detail10clone_implINS0_14bad_exception_EE5cloneEv # TAILCALL
.Lfunc_end97:
	.size	_ZTv0_n24_NK5boost16exception_detail10clone_implINS0_14bad_exception_EE5cloneEv, .Lfunc_end97-_ZTv0_n24_NK5boost16exception_detail10clone_implINS0_14bad_exception_EE5cloneEv
	.cfi_endproc
                                        # -- End function
	.section	.text._ZTv0_n32_NK5boost16exception_detail10clone_implINS0_14bad_exception_EE7rethrowEv,"axG",@progbits,_ZTv0_n32_NK5boost16exception_detail10clone_implINS0_14bad_exception_EE7rethrowEv,comdat
	.weak	_ZTv0_n32_NK5boost16exception_detail10clone_implINS0_14bad_exception_EE7rethrowEv # -- Begin function _ZTv0_n32_NK5boost16exception_detail10clone_implINS0_14bad_exception_EE7rethrowEv
	.p2align	4, 0x90
	.type	_ZTv0_n32_NK5boost16exception_detail10clone_implINS0_14bad_exception_EE7rethrowEv,@function
_ZTv0_n32_NK5boost16exception_detail10clone_implINS0_14bad_exception_EE7rethrowEv: # @_ZTv0_n32_NK5boost16exception_detail10clone_implINS0_14bad_exception_EE7rethrowEv
	.cfi_startproc
# %bb.0:
	pushq	%rbp
	.cfi_def_cfa_offset 16
	.cfi_offset %rbp, -16
	movq	%rsp, %rbp
	.cfi_def_cfa_register %rbp
	movq	%rdi, -8(%rbp)
	movq	-8(%rbp), %rdi
	movq	(%rdi), %rax
	movq	-32(%rax), %rax
	addq	%rax, %rdi
	popq	%rbp
	.cfi_def_cfa %rsp, 8
	jmp	_ZNK5boost16exception_detail10clone_implINS0_14bad_exception_EE7rethrowEv # TAILCALL
.Lfunc_end98:
	.size	_ZTv0_n32_NK5boost16exception_detail10clone_implINS0_14bad_exception_EE7rethrowEv, .Lfunc_end98-_ZTv0_n32_NK5boost16exception_detail10clone_implINS0_14bad_exception_EE7rethrowEv
	.cfi_endproc
                                        # -- End function
	.section	.text._ZTv0_n40_N5boost16exception_detail10clone_implINS0_14bad_exception_EED1Ev,"axG",@progbits,_ZTv0_n40_N5boost16exception_detail10clone_implINS0_14bad_exception_EED1Ev,comdat
	.weak	_ZTv0_n40_N5boost16exception_detail10clone_implINS0_14bad_exception_EED1Ev # -- Begin function _ZTv0_n40_N5boost16exception_detail10clone_implINS0_14bad_exception_EED1Ev
	.p2align	4, 0x90
	.type	_ZTv0_n40_N5boost16exception_detail10clone_implINS0_14bad_exception_EED1Ev,@function
_ZTv0_n40_N5boost16exception_detail10clone_implINS0_14bad_exception_EED1Ev: # @_ZTv0_n40_N5boost16exception_detail10clone_implINS0_14bad_exception_EED1Ev
	.cfi_startproc
# %bb.0:
	pushq	%rbp
	.cfi_def_cfa_offset 16
	.cfi_offset %rbp, -16
	movq	%rsp, %rbp
	.cfi_def_cfa_register %rbp
	movq	%rdi, -8(%rbp)
	movq	-8(%rbp), %rdi
	movq	(%rdi), %rax
	movq	-40(%rax), %rax
	addq	%rax, %rdi
	popq	%rbp
	.cfi_def_cfa %rsp, 8
	jmp	_ZN5boost16exception_detail10clone_implINS0_14bad_exception_EED1Ev # TAILCALL
.Lfunc_end99:
	.size	_ZTv0_n40_N5boost16exception_detail10clone_implINS0_14bad_exception_EED1Ev, .Lfunc_end99-_ZTv0_n40_N5boost16exception_detail10clone_implINS0_14bad_exception_EED1Ev
	.cfi_endproc
                                        # -- End function
	.section	.text._ZTv0_n40_N5boost16exception_detail10clone_implINS0_14bad_exception_EED0Ev,"axG",@progbits,_ZTv0_n40_N5boost16exception_detail10clone_implINS0_14bad_exception_EED0Ev,comdat
	.weak	_ZTv0_n40_N5boost16exception_detail10clone_implINS0_14bad_exception_EED0Ev # -- Begin function _ZTv0_n40_N5boost16exception_detail10clone_implINS0_14bad_exception_EED0Ev
	.p2align	4, 0x90
	.type	_ZTv0_n40_N5boost16exception_detail10clone_implINS0_14bad_exception_EED0Ev,@function
_ZTv0_n40_N5boost16exception_detail10clone_implINS0_14bad_exception_EED0Ev: # @_ZTv0_n40_N5boost16exception_detail10clone_implINS0_14bad_exception_EED0Ev
	.cfi_startproc
# %bb.0:
	pushq	%rbp
	.cfi_def_cfa_offset 16
	.cfi_offset %rbp, -16
	movq	%rsp, %rbp
	.cfi_def_cfa_register %rbp
	movq	%rdi, -8(%rbp)
	movq	-8(%rbp), %rdi
	movq	(%rdi), %rax
	movq	-40(%rax), %rax
	addq	%rax, %rdi
	popq	%rbp
	.cfi_def_cfa %rsp, 8
	jmp	_ZN5boost16exception_detail10clone_implINS0_14bad_exception_EED0Ev # TAILCALL
.Lfunc_end100:
	.size	_ZTv0_n40_N5boost16exception_detail10clone_implINS0_14bad_exception_EED0Ev, .Lfunc_end100-_ZTv0_n40_N5boost16exception_detail10clone_implINS0_14bad_exception_EED0Ev
	.cfi_endproc
                                        # -- End function
	.section	.text._ZN5boost16exception_detail10clone_implINS0_14bad_exception_EEC1ERKS3_NS3_9clone_tagE,"axG",@progbits,_ZN5boost16exception_detail10clone_implINS0_14bad_exception_EEC1ERKS3_NS3_9clone_tagE,comdat
	.weak	_ZN5boost16exception_detail10clone_implINS0_14bad_exception_EEC1ERKS3_NS3_9clone_tagE # -- Begin function _ZN5boost16exception_detail10clone_implINS0_14bad_exception_EEC1ERKS3_NS3_9clone_tagE
	.p2align	4, 0x90
	.type	_ZN5boost16exception_detail10clone_implINS0_14bad_exception_EEC1ERKS3_NS3_9clone_tagE,@function
_ZN5boost16exception_detail10clone_implINS0_14bad_exception_EEC1ERKS3_NS3_9clone_tagE: # @_ZN5boost16exception_detail10clone_implINS0_14bad_exception_EEC1ERKS3_NS3_9clone_tagE
.Lfunc_begin20:
	.cfi_startproc
	.cfi_personality 3, __gxx_personality_v0
	.cfi_lsda 3, .Lexception20
# %bb.0:
	pushq	%rbp
	.cfi_def_cfa_offset 16
	.cfi_offset %rbp, -16
	movq	%rsp, %rbp
	.cfi_def_cfa_register %rbp
	pushq	%rbx
	subq	$40, %rsp
	.cfi_offset %rbx, -24
	movq	%rdi, -40(%rbp)
	movq	%rsi, -32(%rbp)
	movq	-40(%rbp), %rbx
	movq	%rbx, %rdi
	addq	$48, %rdi
	callq	_ZN5boost16exception_detail10clone_baseC2Ev
	movq	-32(%rbp), %rsi
.Ltmp115:
	movq	%rbx, %rdi
	callq	_ZN5boost16exception_detail14bad_exception_C2ERKS1_
.Ltmp116:
	jmp	.LBB101_1
.LBB101_1:
	movq	$_ZTVN5boost16exception_detail10clone_implINS0_14bad_exception_EEE+24, (%rbx)
	movq	$_ZTVN5boost16exception_detail10clone_implINS0_14bad_exception_EEE+72, 40(%rbx)
	movq	$_ZTVN5boost16exception_detail10clone_implINS0_14bad_exception_EEE+136, 48(%rbx)
	movq	-32(%rbp), %rsi
.Ltmp118:
	movq	%rbx, %rdi
	callq	_ZN5boost16exception_detail20copy_boost_exceptionEPNS_9exceptionEPKS1_
.Ltmp119:
	jmp	.LBB101_2
.LBB101_2:
	addq	$40, %rsp
	popq	%rbx
	popq	%rbp
	.cfi_def_cfa %rsp, 8
	retq
.LBB101_3:
	.cfi_def_cfa %rbp, 16
.Ltmp117:
	movq	%rax, -24(%rbp)
	movl	%edx, -12(%rbp)
	jmp	.LBB101_5
.LBB101_4:
.Ltmp120:
	movq	%rax, -24(%rbp)
	movl	%edx, -12(%rbp)
	movq	%rbx, %rdi
	callq	_ZN5boost16exception_detail14bad_exception_D2Ev
.LBB101_5:
	addq	$48, %rbx
	movq	%rbx, %rdi
	callq	_ZN5boost16exception_detail10clone_baseD2Ev
# %bb.6:
	movq	-24(%rbp), %rdi
	callq	_Unwind_Resume
.Lfunc_end101:
	.size	_ZN5boost16exception_detail10clone_implINS0_14bad_exception_EEC1ERKS3_NS3_9clone_tagE, .Lfunc_end101-_ZN5boost16exception_detail10clone_implINS0_14bad_exception_EEC1ERKS3_NS3_9clone_tagE
	.cfi_endproc
	.section	.gcc_except_table,"a",@progbits
	.p2align	2
GCC_except_table101:
.Lexception20:
	.byte	255                     # @LPStart Encoding = omit
	.byte	255                     # @TType Encoding = omit
	.byte	1                       # Call site Encoding = uleb128
	.uleb128 .Lcst_end20-.Lcst_begin20
.Lcst_begin20:
	.uleb128 .Ltmp115-.Lfunc_begin20 # >> Call Site 1 <<
	.uleb128 .Ltmp116-.Ltmp115      #   Call between .Ltmp115 and .Ltmp116
	.uleb128 .Ltmp117-.Lfunc_begin20 #     jumps to .Ltmp117
	.byte	0                       #   On action: cleanup
	.uleb128 .Ltmp118-.Lfunc_begin20 # >> Call Site 2 <<
	.uleb128 .Ltmp119-.Ltmp118      #   Call between .Ltmp118 and .Ltmp119
	.uleb128 .Ltmp120-.Lfunc_begin20 #     jumps to .Ltmp120
	.byte	0                       #   On action: cleanup
	.uleb128 .Ltmp119-.Lfunc_begin20 # >> Call Site 3 <<
	.uleb128 .Lfunc_end101-.Ltmp119 #   Call between .Ltmp119 and .Lfunc_end101
	.byte	0                       #     has no landing pad
	.byte	0                       #   On action: cleanup
.Lcst_end20:
	.p2align	2
                                        # -- End function
	.section	.text._ZN5boost16exception_detail14bad_exception_C2ERKS1_,"axG",@progbits,_ZN5boost16exception_detail14bad_exception_C2ERKS1_,comdat
	.weak	_ZN5boost16exception_detail14bad_exception_C2ERKS1_ # -- Begin function _ZN5boost16exception_detail14bad_exception_C2ERKS1_
	.p2align	4, 0x90
	.type	_ZN5boost16exception_detail14bad_exception_C2ERKS1_,@function
_ZN5boost16exception_detail14bad_exception_C2ERKS1_: # @_ZN5boost16exception_detail14bad_exception_C2ERKS1_
	.cfi_startproc
# %bb.0:
	pushq	%rbp
	.cfi_def_cfa_offset 16
	.cfi_offset %rbp, -16
	movq	%rsp, %rbp
	.cfi_def_cfa_register %rbp
	pushq	%rbx
	subq	$24, %rsp
	.cfi_offset %rbx, -24
	movq	%rdi, -24(%rbp)
	movq	%rsi, -16(%rbp)
	movq	-24(%rbp), %rbx
	movq	-16(%rbp), %rsi
	movq	%rbx, %rdi
	callq	_ZN5boost9exceptionC2ERKS0_
	movq	%rbx, %rdi
	addq	$40, %rdi
	movq	-16(%rbp), %rsi
	addq	$40, %rsi
	callq	_ZNSt13bad_exceptionC2ERKS_
	movabsq	$_ZTVN5boost16exception_detail14bad_exception_E, %rax
	movq	%rax, %rcx
	addq	$48, %rcx
	addq	$16, %rax
	movq	%rax, (%rbx)
	movq	%rcx, 40(%rbx)
	addq	$24, %rsp
	popq	%rbx
	popq	%rbp
	.cfi_def_cfa %rsp, 8
	retq
.Lfunc_end102:
	.size	_ZN5boost16exception_detail14bad_exception_C2ERKS1_, .Lfunc_end102-_ZN5boost16exception_detail14bad_exception_C2ERKS1_
	.cfi_endproc
                                        # -- End function
	.section	.text._ZNSt13bad_exceptionC2ERKS_,"axG",@progbits,_ZNSt13bad_exceptionC2ERKS_,comdat
	.weak	_ZNSt13bad_exceptionC2ERKS_ # -- Begin function _ZNSt13bad_exceptionC2ERKS_
	.p2align	4, 0x90
	.type	_ZNSt13bad_exceptionC2ERKS_,@function
_ZNSt13bad_exceptionC2ERKS_:            # @_ZNSt13bad_exceptionC2ERKS_
	.cfi_startproc
# %bb.0:
	pushq	%rbp
	.cfi_def_cfa_offset 16
	.cfi_offset %rbp, -16
	movq	%rsp, %rbp
	.cfi_def_cfa_register %rbp
	pushq	%rbx
	subq	$24, %rsp
	.cfi_offset %rbx, -24
	movq	%rdi, -24(%rbp)
	movq	%rsi, -16(%rbp)
	movq	-24(%rbp), %rbx
	movq	-16(%rbp), %rsi
	movq	%rbx, %rdi
	callq	_ZNSt9exceptionC2ERKS_
	movabsq	$_ZTVSt13bad_exception, %rax
	addq	$16, %rax
	movq	%rax, (%rbx)
	addq	$24, %rsp
	popq	%rbx
	popq	%rbp
	.cfi_def_cfa %rsp, 8
	retq
.Lfunc_end103:
	.size	_ZNSt13bad_exceptionC2ERKS_, .Lfunc_end103-_ZNSt13bad_exceptionC2ERKS_
	.cfi_endproc
                                        # -- End function
	.section	.text._ZN5boost16exception_detail14bad_exception_D0Ev,"axG",@progbits,_ZN5boost16exception_detail14bad_exception_D0Ev,comdat
	.weak	_ZN5boost16exception_detail14bad_exception_D0Ev # -- Begin function _ZN5boost16exception_detail14bad_exception_D0Ev
	.p2align	4, 0x90
	.type	_ZN5boost16exception_detail14bad_exception_D0Ev,@function
_ZN5boost16exception_detail14bad_exception_D0Ev: # @_ZN5boost16exception_detail14bad_exception_D0Ev
	.cfi_startproc
# %bb.0:
	pushq	%rbp
	.cfi_def_cfa_offset 16
	.cfi_offset %rbp, -16
	movq	%rsp, %rbp
	.cfi_def_cfa_register %rbp
	pushq	%rbx
	pushq	%rax
	.cfi_offset %rbx, -24
	movq	%rdi, -16(%rbp)
	movq	-16(%rbp), %rbx
	movq	%rbx, %rdi
	callq	_ZN5boost16exception_detail14bad_exception_D2Ev
	movq	%rbx, %rdi
	callq	_ZdlPv
	addq	$8, %rsp
	popq	%rbx
	popq	%rbp
	.cfi_def_cfa %rsp, 8
	retq
.Lfunc_end104:
	.size	_ZN5boost16exception_detail14bad_exception_D0Ev, .Lfunc_end104-_ZN5boost16exception_detail14bad_exception_D0Ev
	.cfi_endproc
                                        # -- End function
	.section	.text._ZThn40_N5boost16exception_detail14bad_exception_D1Ev,"axG",@progbits,_ZThn40_N5boost16exception_detail14bad_exception_D1Ev,comdat
	.weak	_ZThn40_N5boost16exception_detail14bad_exception_D1Ev # -- Begin function _ZThn40_N5boost16exception_detail14bad_exception_D1Ev
	.p2align	4, 0x90
	.type	_ZThn40_N5boost16exception_detail14bad_exception_D1Ev,@function
_ZThn40_N5boost16exception_detail14bad_exception_D1Ev: # @_ZThn40_N5boost16exception_detail14bad_exception_D1Ev
	.cfi_startproc
# %bb.0:
	pushq	%rbp
	.cfi_def_cfa_offset 16
	.cfi_offset %rbp, -16
	movq	%rsp, %rbp
	.cfi_def_cfa_register %rbp
	movq	%rdi, -8(%rbp)
	movq	-8(%rbp), %rdi
	addq	$-40, %rdi
	popq	%rbp
	.cfi_def_cfa %rsp, 8
	jmp	_ZN5boost16exception_detail14bad_exception_D2Ev # TAILCALL
.Lfunc_end105:
	.size	_ZThn40_N5boost16exception_detail14bad_exception_D1Ev, .Lfunc_end105-_ZThn40_N5boost16exception_detail14bad_exception_D1Ev
	.cfi_endproc
                                        # -- End function
	.section	.text._ZThn40_N5boost16exception_detail14bad_exception_D0Ev,"axG",@progbits,_ZThn40_N5boost16exception_detail14bad_exception_D0Ev,comdat
	.weak	_ZThn40_N5boost16exception_detail14bad_exception_D0Ev # -- Begin function _ZThn40_N5boost16exception_detail14bad_exception_D0Ev
	.p2align	4, 0x90
	.type	_ZThn40_N5boost16exception_detail14bad_exception_D0Ev,@function
_ZThn40_N5boost16exception_detail14bad_exception_D0Ev: # @_ZThn40_N5boost16exception_detail14bad_exception_D0Ev
	.cfi_startproc
# %bb.0:
	pushq	%rbp
	.cfi_def_cfa_offset 16
	.cfi_offset %rbp, -16
	movq	%rsp, %rbp
	.cfi_def_cfa_register %rbp
	movq	%rdi, -8(%rbp)
	movq	-8(%rbp), %rdi
	addq	$-40, %rdi
	popq	%rbp
	.cfi_def_cfa %rsp, 8
	jmp	_ZN5boost16exception_detail14bad_exception_D0Ev # TAILCALL
.Lfunc_end106:
	.size	_ZThn40_N5boost16exception_detail14bad_exception_D0Ev, .Lfunc_end106-_ZThn40_N5boost16exception_detail14bad_exception_D0Ev
	.cfi_endproc
                                        # -- End function
	.section	.text._ZNSt9exceptionC2ERKS_,"axG",@progbits,_ZNSt9exceptionC2ERKS_,comdat
	.weak	_ZNSt9exceptionC2ERKS_  # -- Begin function _ZNSt9exceptionC2ERKS_
	.p2align	4, 0x90
	.type	_ZNSt9exceptionC2ERKS_,@function
_ZNSt9exceptionC2ERKS_:                 # @_ZNSt9exceptionC2ERKS_
	.cfi_startproc
# %bb.0:
	pushq	%rbp
	.cfi_def_cfa_offset 16
	.cfi_offset %rbp, -16
	movq	%rsp, %rbp
	.cfi_def_cfa_register %rbp
	movabsq	$_ZTVSt9exception, %rax
	addq	$16, %rax
	movq	%rdi, -8(%rbp)
	movq	%rsi, -16(%rbp)
	movq	-8(%rbp), %rcx
	movq	%rax, (%rcx)
	popq	%rbp
	.cfi_def_cfa %rsp, 8
	retq
.Lfunc_end107:
	.size	_ZNSt9exceptionC2ERKS_, .Lfunc_end107-_ZNSt9exceptionC2ERKS_
	.cfi_endproc
                                        # -- End function
	.section	.text._ZN5boost10shared_ptrIKNS_16exception_detail10clone_baseEEC2ERKS4_,"axG",@progbits,_ZN5boost10shared_ptrIKNS_16exception_detail10clone_baseEEC2ERKS4_,comdat
	.weak	_ZN5boost10shared_ptrIKNS_16exception_detail10clone_baseEEC2ERKS4_ # -- Begin function _ZN5boost10shared_ptrIKNS_16exception_detail10clone_baseEEC2ERKS4_
	.p2align	4, 0x90
	.type	_ZN5boost10shared_ptrIKNS_16exception_detail10clone_baseEEC2ERKS4_,@function
_ZN5boost10shared_ptrIKNS_16exception_detail10clone_baseEEC2ERKS4_: # @_ZN5boost10shared_ptrIKNS_16exception_detail10clone_baseEEC2ERKS4_
.Lfunc_begin21:
	.cfi_startproc
	.cfi_personality 3, __gxx_personality_v0
	.cfi_lsda 3, .Lexception21
# %bb.0:
	pushq	%rbp
	.cfi_def_cfa_offset 16
	.cfi_offset %rbp, -16
	movq	%rsp, %rbp
	.cfi_def_cfa_register %rbp
	subq	$16, %rsp
	movq	%rdi, -16(%rbp)
	movq	%rsi, -8(%rbp)
	movq	-16(%rbp), %rdi
	movq	-8(%rbp), %rax
	movq	(%rax), %rax
	movq	%rax, (%rdi)
	addq	$8, %rdi
	movq	-8(%rbp), %rsi
	addq	$8, %rsi
.Ltmp121:
	callq	_ZN5boost6detail12shared_countC2ERKS1_
.Ltmp122:
	jmp	.LBB108_1
.LBB108_1:
	addq	$16, %rsp
	popq	%rbp
	.cfi_def_cfa %rsp, 8
	retq
.LBB108_2:
	.cfi_def_cfa %rbp, 16
.Ltmp123:
                                        # kill: killed $rdx
	movq	%rax, %rdi
	callq	__clang_call_terminate
.Lfunc_end108:
	.size	_ZN5boost10shared_ptrIKNS_16exception_detail10clone_baseEEC2ERKS4_, .Lfunc_end108-_ZN5boost10shared_ptrIKNS_16exception_detail10clone_baseEEC2ERKS4_
	.cfi_endproc
	.section	.gcc_except_table,"a",@progbits
	.p2align	2
GCC_except_table108:
.Lexception21:
	.byte	255                     # @LPStart Encoding = omit
	.byte	3                       # @TType Encoding = udata4
	.uleb128 .Lttbase3-.Lttbaseref3
.Lttbaseref3:
	.byte	1                       # Call site Encoding = uleb128
	.uleb128 .Lcst_end21-.Lcst_begin21
.Lcst_begin21:
	.uleb128 .Ltmp121-.Lfunc_begin21 # >> Call Site 1 <<
	.uleb128 .Ltmp122-.Ltmp121      #   Call between .Ltmp121 and .Ltmp122
	.uleb128 .Ltmp123-.Lfunc_begin21 #     jumps to .Ltmp123
	.byte	1                       #   On action: 1
.Lcst_end21:
	.byte	1                       # >> Action Record 1 <<
                                        #   Catch TypeInfo 1
	.byte	0                       #   No further actions
	.p2align	2
                                        # >> Catch TypeInfos <<
	.long	0                       # TypeInfo 1
.Lttbase3:
	.p2align	2
                                        # -- End function
	.section	.text._ZN5boost6detail12shared_countC2ERKS1_,"axG",@progbits,_ZN5boost6detail12shared_countC2ERKS1_,comdat
	.weak	_ZN5boost6detail12shared_countC2ERKS1_ # -- Begin function _ZN5boost6detail12shared_countC2ERKS1_
	.p2align	4, 0x90
	.type	_ZN5boost6detail12shared_countC2ERKS1_,@function
_ZN5boost6detail12shared_countC2ERKS1_: # @_ZN5boost6detail12shared_countC2ERKS1_
	.cfi_startproc
# %bb.0:
	pushq	%rbp
	.cfi_def_cfa_offset 16
	.cfi_offset %rbp, -16
	movq	%rsp, %rbp
	.cfi_def_cfa_register %rbp
	subq	$16, %rsp
	movq	%rdi, -16(%rbp)
	movq	%rsi, -8(%rbp)
	movq	-16(%rbp), %rax
	movq	-8(%rbp), %rcx
	movq	(%rcx), %rcx
	movq	%rcx, (%rax)
	cmpq	$0, (%rax)
	je	.LBB109_2
# %bb.1:
	movq	(%rax), %rdi
	callq	_ZN5boost6detail15sp_counted_base12add_ref_copyEv
.LBB109_2:
	addq	$16, %rsp
	popq	%rbp
	.cfi_def_cfa %rsp, 8
	retq
.Lfunc_end109:
	.size	_ZN5boost6detail12shared_countC2ERKS1_, .Lfunc_end109-_ZN5boost6detail12shared_countC2ERKS1_
	.cfi_endproc
                                        # -- End function
	.section	.text._ZN5boost6detail15sp_counted_base12add_ref_copyEv,"axG",@progbits,_ZN5boost6detail15sp_counted_base12add_ref_copyEv,comdat
	.weak	_ZN5boost6detail15sp_counted_base12add_ref_copyEv # -- Begin function _ZN5boost6detail15sp_counted_base12add_ref_copyEv
	.p2align	4, 0x90
	.type	_ZN5boost6detail15sp_counted_base12add_ref_copyEv,@function
_ZN5boost6detail15sp_counted_base12add_ref_copyEv: # @_ZN5boost6detail15sp_counted_base12add_ref_copyEv
	.cfi_startproc
# %bb.0:
	pushq	%rbp
	.cfi_def_cfa_offset 16
	.cfi_offset %rbp, -16
	movq	%rsp, %rbp
	.cfi_def_cfa_register %rbp
	subq	$16, %rsp
	movq	%rdi, -8(%rbp)
	movq	-8(%rbp), %rdi
	addq	$8, %rdi
	callq	_ZN5boost6detail16atomic_incrementEPU7_Atomici
	addq	$16, %rsp
	popq	%rbp
	.cfi_def_cfa %rsp, 8
	retq
.Lfunc_end110:
	.size	_ZN5boost6detail15sp_counted_base12add_ref_copyEv, .Lfunc_end110-_ZN5boost6detail15sp_counted_base12add_ref_copyEv
	.cfi_endproc
                                        # -- End function
	.section	.text._ZN5boost6detail16atomic_incrementEPU7_Atomici,"axG",@progbits,_ZN5boost6detail16atomic_incrementEPU7_Atomici,comdat
	.weak	_ZN5boost6detail16atomic_incrementEPU7_Atomici # -- Begin function _ZN5boost6detail16atomic_incrementEPU7_Atomici
	.p2align	4, 0x90
	.type	_ZN5boost6detail16atomic_incrementEPU7_Atomici,@function
_ZN5boost6detail16atomic_incrementEPU7_Atomici: # @_ZN5boost6detail16atomic_incrementEPU7_Atomici
	.cfi_startproc
# %bb.0:
	pushq	%rbp
	.cfi_def_cfa_offset 16
	.cfi_offset %rbp, -16
	movq	%rsp, %rbp
	.cfi_def_cfa_register %rbp
	movq	%rdi, -16(%rbp)
	movq	-16(%rbp), %rax
	movl	$1, -4(%rbp)
	movl	-4(%rbp), %ecx
	lock		xaddl	%ecx, (%rax)
	movl	%ecx, -20(%rbp)
	popq	%rbp
	.cfi_def_cfa %rsp, 8
	retq
.Lfunc_end111:
	.size	_ZN5boost6detail16atomic_incrementEPU7_Atomici, .Lfunc_end111-_ZN5boost6detail16atomic_incrementEPU7_Atomici
	.cfi_endproc
                                        # -- End function
	.section	.text._ZN5boost6detail12shared_countC2Ev,"axG",@progbits,_ZN5boost6detail12shared_countC2Ev,comdat
	.weak	_ZN5boost6detail12shared_countC2Ev # -- Begin function _ZN5boost6detail12shared_countC2Ev
	.p2align	4, 0x90
	.type	_ZN5boost6detail12shared_countC2Ev,@function
_ZN5boost6detail12shared_countC2Ev:     # @_ZN5boost6detail12shared_countC2Ev
	.cfi_startproc
# %bb.0:
	pushq	%rbp
	.cfi_def_cfa_offset 16
	.cfi_offset %rbp, -16
	movq	%rsp, %rbp
	.cfi_def_cfa_register %rbp
	movq	%rdi, -8(%rbp)
	movq	-8(%rbp), %rax
	movq	$0, (%rax)
	popq	%rbp
	.cfi_def_cfa %rsp, 8
	retq
.Lfunc_end112:
	.size	_ZN5boost6detail12shared_countC2Ev, .Lfunc_end112-_ZN5boost6detail12shared_countC2Ev
	.cfi_endproc
                                        # -- End function
	.section	.text._ZN5boost6detail20sp_pointer_constructIKNS_16exception_detail10clone_baseENS2_10clone_implINS2_14bad_exception_EEEEEvPNS_10shared_ptrIT_EEPT0_RNS0_12shared_countE,"axG",@progbits,_ZN5boost6detail20sp_pointer_constructIKNS_16exception_detail10clone_baseENS2_10clone_implINS2_14bad_exception_EEEEEvPNS_10shared_ptrIT_EEPT0_RNS0_12shared_countE,comdat
	.weak	_ZN5boost6detail20sp_pointer_constructIKNS_16exception_detail10clone_baseENS2_10clone_implINS2_14bad_exception_EEEEEvPNS_10shared_ptrIT_EEPT0_RNS0_12shared_countE # -- Begin function _ZN5boost6detail20sp_pointer_constructIKNS_16exception_detail10clone_baseENS2_10clone_implINS2_14bad_exception_EEEEEvPNS_10shared_ptrIT_EEPT0_RNS0_12shared_countE
	.p2align	4, 0x90
	.type	_ZN5boost6detail20sp_pointer_constructIKNS_16exception_detail10clone_baseENS2_10clone_implINS2_14bad_exception_EEEEEvPNS_10shared_ptrIT_EEPT0_RNS0_12shared_countE,@function
_ZN5boost6detail20sp_pointer_constructIKNS_16exception_detail10clone_baseENS2_10clone_implINS2_14bad_exception_EEEEEvPNS_10shared_ptrIT_EEPT0_RNS0_12shared_countE: # @_ZN5boost6detail20sp_pointer_constructIKNS_16exception_detail10clone_baseENS2_10clone_implINS2_14bad_exception_EEEEEvPNS_10shared_ptrIT_EEPT0_RNS0_12shared_countE
.Lfunc_begin22:
	.cfi_startproc
	.cfi_personality 3, __gxx_personality_v0
	.cfi_lsda 3, .Lexception22
# %bb.0:
	pushq	%rbp
	.cfi_def_cfa_offset 16
	.cfi_offset %rbp, -16
	movq	%rsp, %rbp
	.cfi_def_cfa_register %rbp
	pushq	%rbx
	subq	$56, %rsp
	.cfi_offset %rbx, -24
	movq	%rdi, -48(%rbp)
	movq	%rsi, -16(%rbp)
	movq	%rdx, -40(%rbp)
	movq	-16(%rbp), %rsi
	leaq	-24(%rbp), %rbx
	movq	%rbx, %rdi
	callq	_ZN5boost6detail12shared_countC2INS_16exception_detail10clone_implINS3_14bad_exception_EEEEEPT_
	movq	-40(%rbp), %rsi
.Ltmp124:
	movq	%rbx, %rdi
	callq	_ZN5boost6detail12shared_count4swapERS1_
.Ltmp125:
	jmp	.LBB113_1
.LBB113_1:
	leaq	-24(%rbp), %rdi
	callq	_ZN5boost6detail12shared_countD2Ev
	movq	-48(%rbp), %rdi
	movq	-16(%rbp), %rsi
	movq	-16(%rbp), %rdx
	movb	$0, %al
	callq	_ZN5boost6detail26sp_enable_shared_from_thisEz
	addq	$56, %rsp
	popq	%rbx
	popq	%rbp
	.cfi_def_cfa %rsp, 8
	retq
.LBB113_2:
	.cfi_def_cfa %rbp, 16
.Ltmp126:
	movq	%rax, -32(%rbp)
	movl	%edx, -52(%rbp)
	leaq	-24(%rbp), %rdi
	callq	_ZN5boost6detail12shared_countD2Ev
# %bb.3:
	movq	-32(%rbp), %rdi
	callq	_Unwind_Resume
.Lfunc_end113:
	.size	_ZN5boost6detail20sp_pointer_constructIKNS_16exception_detail10clone_baseENS2_10clone_implINS2_14bad_exception_EEEEEvPNS_10shared_ptrIT_EEPT0_RNS0_12shared_countE, .Lfunc_end113-_ZN5boost6detail20sp_pointer_constructIKNS_16exception_detail10clone_baseENS2_10clone_implINS2_14bad_exception_EEEEEvPNS_10shared_ptrIT_EEPT0_RNS0_12shared_countE
	.cfi_endproc
	.section	.gcc_except_table,"a",@progbits
	.p2align	2
GCC_except_table113:
.Lexception22:
	.byte	255                     # @LPStart Encoding = omit
	.byte	255                     # @TType Encoding = omit
	.byte	1                       # Call site Encoding = uleb128
	.uleb128 .Lcst_end22-.Lcst_begin22
.Lcst_begin22:
	.uleb128 .Lfunc_begin22-.Lfunc_begin22 # >> Call Site 1 <<
	.uleb128 .Ltmp124-.Lfunc_begin22 #   Call between .Lfunc_begin22 and .Ltmp124
	.byte	0                       #     has no landing pad
	.byte	0                       #   On action: cleanup
	.uleb128 .Ltmp124-.Lfunc_begin22 # >> Call Site 2 <<
	.uleb128 .Ltmp125-.Ltmp124      #   Call between .Ltmp124 and .Ltmp125
	.uleb128 .Ltmp126-.Lfunc_begin22 #     jumps to .Ltmp126
	.byte	0                       #   On action: cleanup
	.uleb128 .Ltmp125-.Lfunc_begin22 # >> Call Site 3 <<
	.uleb128 .Lfunc_end113-.Ltmp125 #   Call between .Ltmp125 and .Lfunc_end113
	.byte	0                       #     has no landing pad
	.byte	0                       #   On action: cleanup
.Lcst_end22:
	.p2align	2
                                        # -- End function
	.section	.text._ZN5boost6detail12shared_countC2INS_16exception_detail10clone_implINS3_14bad_exception_EEEEEPT_,"axG",@progbits,_ZN5boost6detail12shared_countC2INS_16exception_detail10clone_implINS3_14bad_exception_EEEEEPT_,comdat
	.weak	_ZN5boost6detail12shared_countC2INS_16exception_detail10clone_implINS3_14bad_exception_EEEEEPT_ # -- Begin function _ZN5boost6detail12shared_countC2INS_16exception_detail10clone_implINS3_14bad_exception_EEEEEPT_
	.p2align	4, 0x90
	.type	_ZN5boost6detail12shared_countC2INS_16exception_detail10clone_implINS3_14bad_exception_EEEEEPT_,@function
_ZN5boost6detail12shared_countC2INS_16exception_detail10clone_implINS3_14bad_exception_EEEEEPT_: # @_ZN5boost6detail12shared_countC2INS_16exception_detail10clone_implINS3_14bad_exception_EEEEEPT_
.Lfunc_begin23:
	.cfi_startproc
	.cfi_personality 3, __gxx_personality_v0
	.cfi_lsda 3, .Lexception23
# %bb.0:
	pushq	%rbp
	.cfi_def_cfa_offset 16
	.cfi_offset %rbp, -16
	movq	%rsp, %rbp
	.cfi_def_cfa_register %rbp
	pushq	%r14
	pushq	%rbx
	subq	$32, %rsp
	.cfi_offset %rbx, -32
	.cfi_offset %r14, -24
	movq	%rdi, -48(%rbp)
	movq	%rsi, -40(%rbp)
	movq	-48(%rbp), %rbx
	movq	$0, (%rbx)
.Ltmp127:
	movl	$24, %edi
	callq	_Znwm
	movq	%rax, %r14
.Ltmp128:
	jmp	.LBB114_1
.LBB114_1:
	movq	-40(%rbp), %rsi
.Ltmp130:
	movq	%r14, %rdi
	callq	_ZN5boost6detail17sp_counted_impl_pINS_16exception_detail10clone_implINS2_14bad_exception_EEEEC2EPS5_
.Ltmp131:
	jmp	.LBB114_2
.LBB114_2:
	movq	%r14, (%rbx)
	jmp	.LBB114_9
.LBB114_3:
.Ltmp129:
	movq	%rax, -32(%rbp)
	movl	%edx, -20(%rbp)
	jmp	.LBB114_5
.LBB114_4:
.Ltmp132:
	movq	%rax, -32(%rbp)
	movl	%edx, -20(%rbp)
	movq	%r14, %rdi
	callq	_ZdlPv
.LBB114_5:
	movq	-32(%rbp), %rdi
	callq	__cxa_begin_catch
	movq	-40(%rbp), %rdi
.Ltmp133:
	callq	_ZN5boost14checked_deleteINS_16exception_detail10clone_implINS1_14bad_exception_EEEEEvPT_
.Ltmp134:
	jmp	.LBB114_6
.LBB114_6:
.Ltmp135:
	callq	__cxa_rethrow
.Ltmp136:
	jmp	.LBB114_12
.LBB114_7:
.Ltmp137:
	movq	%rax, -32(%rbp)
	movl	%edx, -20(%rbp)
.Ltmp138:
	callq	__cxa_end_catch
.Ltmp139:
	jmp	.LBB114_8
.LBB114_8:
	jmp	.LBB114_10
.LBB114_9:
	addq	$32, %rsp
	popq	%rbx
	popq	%r14
	popq	%rbp
	.cfi_def_cfa %rsp, 8
	retq
.LBB114_10:
	.cfi_def_cfa %rbp, 16
	movq	-32(%rbp), %rdi
	callq	_Unwind_Resume
.LBB114_11:
.Ltmp140:
                                        # kill: killed $rdx
	movq	%rax, %rdi
	callq	__clang_call_terminate
.LBB114_12:
.Lfunc_end114:
	.size	_ZN5boost6detail12shared_countC2INS_16exception_detail10clone_implINS3_14bad_exception_EEEEEPT_, .Lfunc_end114-_ZN5boost6detail12shared_countC2INS_16exception_detail10clone_implINS3_14bad_exception_EEEEEPT_
	.cfi_endproc
	.section	.gcc_except_table,"a",@progbits
	.p2align	2
GCC_except_table114:
.Lexception23:
	.byte	255                     # @LPStart Encoding = omit
	.byte	3                       # @TType Encoding = udata4
	.uleb128 .Lttbase4-.Lttbaseref4
.Lttbaseref4:
	.byte	1                       # Call site Encoding = uleb128
	.uleb128 .Lcst_end23-.Lcst_begin23
.Lcst_begin23:
	.uleb128 .Ltmp127-.Lfunc_begin23 # >> Call Site 1 <<
	.uleb128 .Ltmp128-.Ltmp127      #   Call between .Ltmp127 and .Ltmp128
	.uleb128 .Ltmp129-.Lfunc_begin23 #     jumps to .Ltmp129
	.byte	1                       #   On action: 1
	.uleb128 .Ltmp130-.Lfunc_begin23 # >> Call Site 2 <<
	.uleb128 .Ltmp131-.Ltmp130      #   Call between .Ltmp130 and .Ltmp131
	.uleb128 .Ltmp132-.Lfunc_begin23 #     jumps to .Ltmp132
	.byte	1                       #   On action: 1
	.uleb128 .Ltmp131-.Lfunc_begin23 # >> Call Site 3 <<
	.uleb128 .Ltmp133-.Ltmp131      #   Call between .Ltmp131 and .Ltmp133
	.byte	0                       #     has no landing pad
	.byte	0                       #   On action: cleanup
	.uleb128 .Ltmp133-.Lfunc_begin23 # >> Call Site 4 <<
	.uleb128 .Ltmp136-.Ltmp133      #   Call between .Ltmp133 and .Ltmp136
	.uleb128 .Ltmp137-.Lfunc_begin23 #     jumps to .Ltmp137
	.byte	0                       #   On action: cleanup
	.uleb128 .Ltmp138-.Lfunc_begin23 # >> Call Site 5 <<
	.uleb128 .Ltmp139-.Ltmp138      #   Call between .Ltmp138 and .Ltmp139
	.uleb128 .Ltmp140-.Lfunc_begin23 #     jumps to .Ltmp140
	.byte	1                       #   On action: 1
	.uleb128 .Ltmp139-.Lfunc_begin23 # >> Call Site 6 <<
	.uleb128 .Lfunc_end114-.Ltmp139 #   Call between .Ltmp139 and .Lfunc_end114
	.byte	0                       #     has no landing pad
	.byte	0                       #   On action: cleanup
.Lcst_end23:
	.byte	1                       # >> Action Record 1 <<
                                        #   Catch TypeInfo 1
	.byte	0                       #   No further actions
	.p2align	2
                                        # >> Catch TypeInfos <<
	.long	0                       # TypeInfo 1
.Lttbase4:
	.p2align	2
                                        # -- End function
	.section	.text._ZN5boost6detail12shared_count4swapERS1_,"axG",@progbits,_ZN5boost6detail12shared_count4swapERS1_,comdat
	.weak	_ZN5boost6detail12shared_count4swapERS1_ # -- Begin function _ZN5boost6detail12shared_count4swapERS1_
	.p2align	4, 0x90
	.type	_ZN5boost6detail12shared_count4swapERS1_,@function
_ZN5boost6detail12shared_count4swapERS1_: # @_ZN5boost6detail12shared_count4swapERS1_
	.cfi_startproc
# %bb.0:
	pushq	%rbp
	.cfi_def_cfa_offset 16
	.cfi_offset %rbp, -16
	movq	%rsp, %rbp
	.cfi_def_cfa_register %rbp
	movq	%rdi, -24(%rbp)
	movq	%rsi, -8(%rbp)
	movq	-24(%rbp), %rax
	movq	-8(%rbp), %rcx
	movq	(%rcx), %rcx
	movq	%rcx, -16(%rbp)
	movq	(%rax), %rcx
	movq	-8(%rbp), %rdx
	movq	%rcx, (%rdx)
	movq	-16(%rbp), %rcx
	movq	%rcx, (%rax)
	popq	%rbp
	.cfi_def_cfa %rsp, 8
	retq
.Lfunc_end115:
	.size	_ZN5boost6detail12shared_count4swapERS1_, .Lfunc_end115-_ZN5boost6detail12shared_count4swapERS1_
	.cfi_endproc
                                        # -- End function
	.section	.text._ZN5boost6detail26sp_enable_shared_from_thisEz,"axG",@progbits,_ZN5boost6detail26sp_enable_shared_from_thisEz,comdat
	.weak	_ZN5boost6detail26sp_enable_shared_from_thisEz # -- Begin function _ZN5boost6detail26sp_enable_shared_from_thisEz
	.p2align	4, 0x90
	.type	_ZN5boost6detail26sp_enable_shared_from_thisEz,@function
_ZN5boost6detail26sp_enable_shared_from_thisEz: # @_ZN5boost6detail26sp_enable_shared_from_thisEz
	.cfi_startproc
# %bb.0:
	pushq	%rbp
	.cfi_def_cfa_offset 16
	.cfi_offset %rbp, -16
	movq	%rsp, %rbp
	.cfi_def_cfa_register %rbp
	popq	%rbp
	.cfi_def_cfa %rsp, 8
	retq
.Lfunc_end116:
	.size	_ZN5boost6detail26sp_enable_shared_from_thisEz, .Lfunc_end116-_ZN5boost6detail26sp_enable_shared_from_thisEz
	.cfi_endproc
                                        # -- End function
	.section	.text._ZN5boost6detail17sp_counted_impl_pINS_16exception_detail10clone_implINS2_14bad_exception_EEEEC2EPS5_,"axG",@progbits,_ZN5boost6detail17sp_counted_impl_pINS_16exception_detail10clone_implINS2_14bad_exception_EEEEC2EPS5_,comdat
	.weak	_ZN5boost6detail17sp_counted_impl_pINS_16exception_detail10clone_implINS2_14bad_exception_EEEEC2EPS5_ # -- Begin function _ZN5boost6detail17sp_counted_impl_pINS_16exception_detail10clone_implINS2_14bad_exception_EEEEC2EPS5_
	.p2align	4, 0x90
	.type	_ZN5boost6detail17sp_counted_impl_pINS_16exception_detail10clone_implINS2_14bad_exception_EEEEC2EPS5_,@function
_ZN5boost6detail17sp_counted_impl_pINS_16exception_detail10clone_implINS2_14bad_exception_EEEEC2EPS5_: # @_ZN5boost6detail17sp_counted_impl_pINS_16exception_detail10clone_implINS2_14bad_exception_EEEEC2EPS5_
	.cfi_startproc
# %bb.0:
	pushq	%rbp
	.cfi_def_cfa_offset 16
	.cfi_offset %rbp, -16
	movq	%rsp, %rbp
	.cfi_def_cfa_register %rbp
	pushq	%rbx
	subq	$24, %rsp
	.cfi_offset %rbx, -24
	movq	%rdi, -24(%rbp)
	movq	%rsi, -16(%rbp)
	movq	-24(%rbp), %rbx
	movq	%rbx, %rdi
	callq	_ZN5boost6detail15sp_counted_baseC2Ev
	movabsq	$_ZTVN5boost6detail17sp_counted_impl_pINS_16exception_detail10clone_implINS2_14bad_exception_EEEEE, %rax
	addq	$16, %rax
	movq	%rax, (%rbx)
	movq	-16(%rbp), %rax
	movq	%rax, 16(%rbx)
	addq	$24, %rsp
	popq	%rbx
	popq	%rbp
	.cfi_def_cfa %rsp, 8
	retq
.Lfunc_end117:
	.size	_ZN5boost6detail17sp_counted_impl_pINS_16exception_detail10clone_implINS2_14bad_exception_EEEEC2EPS5_, .Lfunc_end117-_ZN5boost6detail17sp_counted_impl_pINS_16exception_detail10clone_implINS2_14bad_exception_EEEEC2EPS5_
	.cfi_endproc
                                        # -- End function
	.section	.text._ZN5boost14checked_deleteINS_16exception_detail10clone_implINS1_14bad_exception_EEEEEvPT_,"axG",@progbits,_ZN5boost14checked_deleteINS_16exception_detail10clone_implINS1_14bad_exception_EEEEEvPT_,comdat
	.weak	_ZN5boost14checked_deleteINS_16exception_detail10clone_implINS1_14bad_exception_EEEEEvPT_ # -- Begin function _ZN5boost14checked_deleteINS_16exception_detail10clone_implINS1_14bad_exception_EEEEEvPT_
	.p2align	4, 0x90
	.type	_ZN5boost14checked_deleteINS_16exception_detail10clone_implINS1_14bad_exception_EEEEEvPT_,@function
_ZN5boost14checked_deleteINS_16exception_detail10clone_implINS1_14bad_exception_EEEEEvPT_: # @_ZN5boost14checked_deleteINS_16exception_detail10clone_implINS1_14bad_exception_EEEEEvPT_
	.cfi_startproc
# %bb.0:
	pushq	%rbp
	.cfi_def_cfa_offset 16
	.cfi_offset %rbp, -16
	movq	%rsp, %rbp
	.cfi_def_cfa_register %rbp
	subq	$16, %rsp
	movq	%rdi, -8(%rbp)
	movq	-8(%rbp), %rdi
	cmpq	$0, %rdi
	je	.LBB118_2
# %bb.1:
	movq	(%rdi), %rax
	callq	*8(%rax)
.LBB118_2:
	addq	$16, %rsp
	popq	%rbp
	.cfi_def_cfa %rsp, 8
	retq
.Lfunc_end118:
	.size	_ZN5boost14checked_deleteINS_16exception_detail10clone_implINS1_14bad_exception_EEEEEvPT_, .Lfunc_end118-_ZN5boost14checked_deleteINS_16exception_detail10clone_implINS1_14bad_exception_EEEEEvPT_
	.cfi_endproc
                                        # -- End function
	.section	.text._ZN5boost6detail15sp_counted_baseC2Ev,"axG",@progbits,_ZN5boost6detail15sp_counted_baseC2Ev,comdat
	.weak	_ZN5boost6detail15sp_counted_baseC2Ev # -- Begin function _ZN5boost6detail15sp_counted_baseC2Ev
	.p2align	4, 0x90
	.type	_ZN5boost6detail15sp_counted_baseC2Ev,@function
_ZN5boost6detail15sp_counted_baseC2Ev:  # @_ZN5boost6detail15sp_counted_baseC2Ev
	.cfi_startproc
# %bb.0:
	pushq	%rbp
	.cfi_def_cfa_offset 16
	.cfi_offset %rbp, -16
	movq	%rsp, %rbp
	.cfi_def_cfa_register %rbp
	movabsq	$_ZTVN5boost6detail15sp_counted_baseE, %rax
	addq	$16, %rax
	movq	%rdi, -8(%rbp)
	movq	-8(%rbp), %rcx
	movq	%rax, (%rcx)
	movl	$1, 8(%rcx)
	movl	$1, 12(%rcx)
	popq	%rbp
	.cfi_def_cfa %rsp, 8
	retq
.Lfunc_end119:
	.size	_ZN5boost6detail15sp_counted_baseC2Ev, .Lfunc_end119-_ZN5boost6detail15sp_counted_baseC2Ev
	.cfi_endproc
                                        # -- End function
	.section	.text._ZN5boost6detail17sp_counted_impl_pINS_16exception_detail10clone_implINS2_14bad_exception_EEEED2Ev,"axG",@progbits,_ZN5boost6detail17sp_counted_impl_pINS_16exception_detail10clone_implINS2_14bad_exception_EEEED2Ev,comdat
	.weak	_ZN5boost6detail17sp_counted_impl_pINS_16exception_detail10clone_implINS2_14bad_exception_EEEED2Ev # -- Begin function _ZN5boost6detail17sp_counted_impl_pINS_16exception_detail10clone_implINS2_14bad_exception_EEEED2Ev
	.p2align	4, 0x90
	.type	_ZN5boost6detail17sp_counted_impl_pINS_16exception_detail10clone_implINS2_14bad_exception_EEEED2Ev,@function
_ZN5boost6detail17sp_counted_impl_pINS_16exception_detail10clone_implINS2_14bad_exception_EEEED2Ev: # @_ZN5boost6detail17sp_counted_impl_pINS_16exception_detail10clone_implINS2_14bad_exception_EEEED2Ev
	.cfi_startproc
# %bb.0:
	pushq	%rbp
	.cfi_def_cfa_offset 16
	.cfi_offset %rbp, -16
	movq	%rsp, %rbp
	.cfi_def_cfa_register %rbp
	subq	$16, %rsp
	movq	%rdi, -8(%rbp)
	movq	-8(%rbp), %rdi
	callq	_ZN5boost6detail15sp_counted_baseD2Ev
	addq	$16, %rsp
	popq	%rbp
	.cfi_def_cfa %rsp, 8
	retq
.Lfunc_end120:
	.size	_ZN5boost6detail17sp_counted_impl_pINS_16exception_detail10clone_implINS2_14bad_exception_EEEED2Ev, .Lfunc_end120-_ZN5boost6detail17sp_counted_impl_pINS_16exception_detail10clone_implINS2_14bad_exception_EEEED2Ev
	.cfi_endproc
                                        # -- End function
	.section	.text._ZN5boost6detail17sp_counted_impl_pINS_16exception_detail10clone_implINS2_14bad_exception_EEEED0Ev,"axG",@progbits,_ZN5boost6detail17sp_counted_impl_pINS_16exception_detail10clone_implINS2_14bad_exception_EEEED0Ev,comdat
	.weak	_ZN5boost6detail17sp_counted_impl_pINS_16exception_detail10clone_implINS2_14bad_exception_EEEED0Ev # -- Begin function _ZN5boost6detail17sp_counted_impl_pINS_16exception_detail10clone_implINS2_14bad_exception_EEEED0Ev
	.p2align	4, 0x90
	.type	_ZN5boost6detail17sp_counted_impl_pINS_16exception_detail10clone_implINS2_14bad_exception_EEEED0Ev,@function
_ZN5boost6detail17sp_counted_impl_pINS_16exception_detail10clone_implINS2_14bad_exception_EEEED0Ev: # @_ZN5boost6detail17sp_counted_impl_pINS_16exception_detail10clone_implINS2_14bad_exception_EEEED0Ev
	.cfi_startproc
# %bb.0:
	pushq	%rbp
	.cfi_def_cfa_offset 16
	.cfi_offset %rbp, -16
	movq	%rsp, %rbp
	.cfi_def_cfa_register %rbp
	pushq	%rbx
	pushq	%rax
	.cfi_offset %rbx, -24
	movq	%rdi, -16(%rbp)
	movq	-16(%rbp), %rbx
	movq	%rbx, %rdi
	callq	_ZN5boost6detail17sp_counted_impl_pINS_16exception_detail10clone_implINS2_14bad_exception_EEEED2Ev
	movq	%rbx, %rdi
	callq	_ZdlPv
	addq	$8, %rsp
	popq	%rbx
	popq	%rbp
	.cfi_def_cfa %rsp, 8
	retq
.Lfunc_end121:
	.size	_ZN5boost6detail17sp_counted_impl_pINS_16exception_detail10clone_implINS2_14bad_exception_EEEED0Ev, .Lfunc_end121-_ZN5boost6detail17sp_counted_impl_pINS_16exception_detail10clone_implINS2_14bad_exception_EEEED0Ev
	.cfi_endproc
                                        # -- End function
	.section	.text._ZN5boost6detail17sp_counted_impl_pINS_16exception_detail10clone_implINS2_14bad_exception_EEEE7disposeEv,"axG",@progbits,_ZN5boost6detail17sp_counted_impl_pINS_16exception_detail10clone_implINS2_14bad_exception_EEEE7disposeEv,comdat
	.weak	_ZN5boost6detail17sp_counted_impl_pINS_16exception_detail10clone_implINS2_14bad_exception_EEEE7disposeEv # -- Begin function _ZN5boost6detail17sp_counted_impl_pINS_16exception_detail10clone_implINS2_14bad_exception_EEEE7disposeEv
	.p2align	4, 0x90
	.type	_ZN5boost6detail17sp_counted_impl_pINS_16exception_detail10clone_implINS2_14bad_exception_EEEE7disposeEv,@function
_ZN5boost6detail17sp_counted_impl_pINS_16exception_detail10clone_implINS2_14bad_exception_EEEE7disposeEv: # @_ZN5boost6detail17sp_counted_impl_pINS_16exception_detail10clone_implINS2_14bad_exception_EEEE7disposeEv
	.cfi_startproc
# %bb.0:
	pushq	%rbp
	.cfi_def_cfa_offset 16
	.cfi_offset %rbp, -16
	movq	%rsp, %rbp
	.cfi_def_cfa_register %rbp
	subq	$16, %rsp
	movq	%rdi, -8(%rbp)
	movq	-8(%rbp), %rax
	movq	16(%rax), %rdi
	callq	_ZN5boost14checked_deleteINS_16exception_detail10clone_implINS1_14bad_exception_EEEEEvPT_
	addq	$16, %rsp
	popq	%rbp
	.cfi_def_cfa %rsp, 8
	retq
.Lfunc_end122:
	.size	_ZN5boost6detail17sp_counted_impl_pINS_16exception_detail10clone_implINS2_14bad_exception_EEEE7disposeEv, .Lfunc_end122-_ZN5boost6detail17sp_counted_impl_pINS_16exception_detail10clone_implINS2_14bad_exception_EEEE7disposeEv
	.cfi_endproc
                                        # -- End function
	.section	.text._ZN5boost6detail15sp_counted_base7destroyEv,"axG",@progbits,_ZN5boost6detail15sp_counted_base7destroyEv,comdat
	.weak	_ZN5boost6detail15sp_counted_base7destroyEv # -- Begin function _ZN5boost6detail15sp_counted_base7destroyEv
	.p2align	4, 0x90
	.type	_ZN5boost6detail15sp_counted_base7destroyEv,@function
_ZN5boost6detail15sp_counted_base7destroyEv: # @_ZN5boost6detail15sp_counted_base7destroyEv
	.cfi_startproc
# %bb.0:
	pushq	%rbp
	.cfi_def_cfa_offset 16
	.cfi_offset %rbp, -16
	movq	%rsp, %rbp
	.cfi_def_cfa_register %rbp
	subq	$16, %rsp
	movq	%rdi, -8(%rbp)
	movq	-8(%rbp), %rdi
	cmpq	$0, %rdi
	je	.LBB123_2
# %bb.1:
	movq	(%rdi), %rax
	callq	*8(%rax)
.LBB123_2:
	addq	$16, %rsp
	popq	%rbp
	.cfi_def_cfa %rsp, 8
	retq
.Lfunc_end123:
	.size	_ZN5boost6detail15sp_counted_base7destroyEv, .Lfunc_end123-_ZN5boost6detail15sp_counted_base7destroyEv
	.cfi_endproc
                                        # -- End function
	.section	.text._ZN5boost6detail17sp_counted_impl_pINS_16exception_detail10clone_implINS2_14bad_exception_EEEE11get_deleterERKSt9type_info,"axG",@progbits,_ZN5boost6detail17sp_counted_impl_pINS_16exception_detail10clone_implINS2_14bad_exception_EEEE11get_deleterERKSt9type_info,comdat
	.weak	_ZN5boost6detail17sp_counted_impl_pINS_16exception_detail10clone_implINS2_14bad_exception_EEEE11get_deleterERKSt9type_info # -- Begin function _ZN5boost6detail17sp_counted_impl_pINS_16exception_detail10clone_implINS2_14bad_exception_EEEE11get_deleterERKSt9type_info
	.p2align	4, 0x90
	.type	_ZN5boost6detail17sp_counted_impl_pINS_16exception_detail10clone_implINS2_14bad_exception_EEEE11get_deleterERKSt9type_info,@function
_ZN5boost6detail17sp_counted_impl_pINS_16exception_detail10clone_implINS2_14bad_exception_EEEE11get_deleterERKSt9type_info: # @_ZN5boost6detail17sp_counted_impl_pINS_16exception_detail10clone_implINS2_14bad_exception_EEEE11get_deleterERKSt9type_info
	.cfi_startproc
# %bb.0:
	pushq	%rbp
	.cfi_def_cfa_offset 16
	.cfi_offset %rbp, -16
	movq	%rsp, %rbp
	.cfi_def_cfa_register %rbp
	movq	%rdi, -16(%rbp)
	movq	%rsi, -8(%rbp)
	xorl	%eax, %eax
	popq	%rbp
	.cfi_def_cfa %rsp, 8
	retq
.Lfunc_end124:
	.size	_ZN5boost6detail17sp_counted_impl_pINS_16exception_detail10clone_implINS2_14bad_exception_EEEE11get_deleterERKSt9type_info, .Lfunc_end124-_ZN5boost6detail17sp_counted_impl_pINS_16exception_detail10clone_implINS2_14bad_exception_EEEE11get_deleterERKSt9type_info
	.cfi_endproc
                                        # -- End function
	.section	.text._ZN5boost6detail17sp_counted_impl_pINS_16exception_detail10clone_implINS2_14bad_exception_EEEE17get_local_deleterERKSt9type_info,"axG",@progbits,_ZN5boost6detail17sp_counted_impl_pINS_16exception_detail10clone_implINS2_14bad_exception_EEEE17get_local_deleterERKSt9type_info,comdat
	.weak	_ZN5boost6detail17sp_counted_impl_pINS_16exception_detail10clone_implINS2_14bad_exception_EEEE17get_local_deleterERKSt9type_info # -- Begin function _ZN5boost6detail17sp_counted_impl_pINS_16exception_detail10clone_implINS2_14bad_exception_EEEE17get_local_deleterERKSt9type_info
	.p2align	4, 0x90
	.type	_ZN5boost6detail17sp_counted_impl_pINS_16exception_detail10clone_implINS2_14bad_exception_EEEE17get_local_deleterERKSt9type_info,@function
_ZN5boost6detail17sp_counted_impl_pINS_16exception_detail10clone_implINS2_14bad_exception_EEEE17get_local_deleterERKSt9type_info: # @_ZN5boost6detail17sp_counted_impl_pINS_16exception_detail10clone_implINS2_14bad_exception_EEEE17get_local_deleterERKSt9type_info
	.cfi_startproc
# %bb.0:
	pushq	%rbp
	.cfi_def_cfa_offset 16
	.cfi_offset %rbp, -16
	movq	%rsp, %rbp
	.cfi_def_cfa_register %rbp
	movq	%rdi, -16(%rbp)
	movq	%rsi, -8(%rbp)
	xorl	%eax, %eax
	popq	%rbp
	.cfi_def_cfa %rsp, 8
	retq
.Lfunc_end125:
	.size	_ZN5boost6detail17sp_counted_impl_pINS_16exception_detail10clone_implINS2_14bad_exception_EEEE17get_local_deleterERKSt9type_info, .Lfunc_end125-_ZN5boost6detail17sp_counted_impl_pINS_16exception_detail10clone_implINS2_14bad_exception_EEEE17get_local_deleterERKSt9type_info
	.cfi_endproc
                                        # -- End function
	.section	.text._ZN5boost6detail17sp_counted_impl_pINS_16exception_detail10clone_implINS2_14bad_exception_EEEE19get_untyped_deleterEv,"axG",@progbits,_ZN5boost6detail17sp_counted_impl_pINS_16exception_detail10clone_implINS2_14bad_exception_EEEE19get_untyped_deleterEv,comdat
	.weak	_ZN5boost6detail17sp_counted_impl_pINS_16exception_detail10clone_implINS2_14bad_exception_EEEE19get_untyped_deleterEv # -- Begin function _ZN5boost6detail17sp_counted_impl_pINS_16exception_detail10clone_implINS2_14bad_exception_EEEE19get_untyped_deleterEv
	.p2align	4, 0x90
	.type	_ZN5boost6detail17sp_counted_impl_pINS_16exception_detail10clone_implINS2_14bad_exception_EEEE19get_untyped_deleterEv,@function
_ZN5boost6detail17sp_counted_impl_pINS_16exception_detail10clone_implINS2_14bad_exception_EEEE19get_untyped_deleterEv: # @_ZN5boost6detail17sp_counted_impl_pINS_16exception_detail10clone_implINS2_14bad_exception_EEEE19get_untyped_deleterEv
	.cfi_startproc
# %bb.0:
	pushq	%rbp
	.cfi_def_cfa_offset 16
	.cfi_offset %rbp, -16
	movq	%rsp, %rbp
	.cfi_def_cfa_register %rbp
	movq	%rdi, -8(%rbp)
	xorl	%eax, %eax
	popq	%rbp
	.cfi_def_cfa %rsp, 8
	retq
.Lfunc_end126:
	.size	_ZN5boost6detail17sp_counted_impl_pINS_16exception_detail10clone_implINS2_14bad_exception_EEEE19get_untyped_deleterEv, .Lfunc_end126-_ZN5boost6detail17sp_counted_impl_pINS_16exception_detail10clone_implINS2_14bad_exception_EEEE19get_untyped_deleterEv
	.cfi_endproc
                                        # -- End function
	.section	.text._ZN5boost6detail15sp_counted_baseD2Ev,"axG",@progbits,_ZN5boost6detail15sp_counted_baseD2Ev,comdat
	.weak	_ZN5boost6detail15sp_counted_baseD2Ev # -- Begin function _ZN5boost6detail15sp_counted_baseD2Ev
	.p2align	4, 0x90
	.type	_ZN5boost6detail15sp_counted_baseD2Ev,@function
_ZN5boost6detail15sp_counted_baseD2Ev:  # @_ZN5boost6detail15sp_counted_baseD2Ev
	.cfi_startproc
# %bb.0:
	pushq	%rbp
	.cfi_def_cfa_offset 16
	.cfi_offset %rbp, -16
	movq	%rsp, %rbp
	.cfi_def_cfa_register %rbp
	movq	%rdi, -8(%rbp)
	popq	%rbp
	.cfi_def_cfa %rsp, 8
	retq
.Lfunc_end127:
	.size	_ZN5boost6detail15sp_counted_baseD2Ev, .Lfunc_end127-_ZN5boost6detail15sp_counted_baseD2Ev
	.cfi_endproc
                                        # -- End function
	.section	.text._ZN5boost6detail15sp_counted_baseD0Ev,"axG",@progbits,_ZN5boost6detail15sp_counted_baseD0Ev,comdat
	.weak	_ZN5boost6detail15sp_counted_baseD0Ev # -- Begin function _ZN5boost6detail15sp_counted_baseD0Ev
	.p2align	4, 0x90
	.type	_ZN5boost6detail15sp_counted_baseD0Ev,@function
_ZN5boost6detail15sp_counted_baseD0Ev:  # @_ZN5boost6detail15sp_counted_baseD0Ev
	.cfi_startproc
# %bb.0:
	pushq	%rbp
	.cfi_def_cfa_offset 16
	.cfi_offset %rbp, -16
	movq	%rsp, %rbp
	.cfi_def_cfa_register %rbp
	movq	%rdi, -8(%rbp)
	ud2
.Lfunc_end128:
	.size	_ZN5boost6detail15sp_counted_baseD0Ev, .Lfunc_end128-_ZN5boost6detail15sp_counted_baseD0Ev
	.cfi_endproc
                                        # -- End function
	.section	.text._ZSt4moveIRN5boost10error_infoINS0_11throw_line_EiEEEONSt16remove_referenceIT_E4typeEOS6_,"axG",@progbits,_ZSt4moveIRN5boost10error_infoINS0_11throw_line_EiEEEONSt16remove_referenceIT_E4typeEOS6_,comdat
	.weak	_ZSt4moveIRN5boost10error_infoINS0_11throw_line_EiEEEONSt16remove_referenceIT_E4typeEOS6_ # -- Begin function _ZSt4moveIRN5boost10error_infoINS0_11throw_line_EiEEEONSt16remove_referenceIT_E4typeEOS6_
	.p2align	4, 0x90
	.type	_ZSt4moveIRN5boost10error_infoINS0_11throw_line_EiEEEONSt16remove_referenceIT_E4typeEOS6_,@function
_ZSt4moveIRN5boost10error_infoINS0_11throw_line_EiEEEONSt16remove_referenceIT_E4typeEOS6_: # @_ZSt4moveIRN5boost10error_infoINS0_11throw_line_EiEEEONSt16remove_referenceIT_E4typeEOS6_
	.cfi_startproc
# %bb.0:
	pushq	%rbp
	.cfi_def_cfa_offset 16
	.cfi_offset %rbp, -16
	movq	%rsp, %rbp
	.cfi_def_cfa_register %rbp
	movq	%rdi, -8(%rbp)
	movq	-8(%rbp), %rax
	popq	%rbp
	.cfi_def_cfa %rsp, 8
	retq
.Lfunc_end129:
	.size	_ZSt4moveIRN5boost10error_infoINS0_11throw_line_EiEEEONSt16remove_referenceIT_E4typeEOS6_, .Lfunc_end129-_ZSt4moveIRN5boost10error_infoINS0_11throw_line_EiEEEONSt16remove_referenceIT_E4typeEOS6_
	.cfi_endproc
                                        # -- End function
	.section	.text._ZN5boost16exception_detail8set_infoINS0_10clone_implINS0_14bad_exception_EEENS_11throw_line_EiEERKT_S8_ONS_10error_infoIT0_T1_EE,"axG",@progbits,_ZN5boost16exception_detail8set_infoINS0_10clone_implINS0_14bad_exception_EEENS_11throw_line_EiEERKT_S8_ONS_10error_infoIT0_T1_EE,comdat
	.weak	_ZN5boost16exception_detail8set_infoINS0_10clone_implINS0_14bad_exception_EEENS_11throw_line_EiEERKT_S8_ONS_10error_infoIT0_T1_EE # -- Begin function _ZN5boost16exception_detail8set_infoINS0_10clone_implINS0_14bad_exception_EEENS_11throw_line_EiEERKT_S8_ONS_10error_infoIT0_T1_EE
	.p2align	4, 0x90
	.type	_ZN5boost16exception_detail8set_infoINS0_10clone_implINS0_14bad_exception_EEENS_11throw_line_EiEERKT_S8_ONS_10error_infoIT0_T1_EE,@function
_ZN5boost16exception_detail8set_infoINS0_10clone_implINS0_14bad_exception_EEENS_11throw_line_EiEERKT_S8_ONS_10error_infoIT0_T1_EE: # @_ZN5boost16exception_detail8set_infoINS0_10clone_implINS0_14bad_exception_EEENS_11throw_line_EiEERKT_S8_ONS_10error_infoIT0_T1_EE
	.cfi_startproc
# %bb.0:
	pushq	%rbp
	.cfi_def_cfa_offset 16
	.cfi_offset %rbp, -16
	movq	%rsp, %rbp
	.cfi_def_cfa_register %rbp
	pushq	%rbx
	subq	$24, %rsp
	.cfi_offset %rbx, -24
	movq	%rdi, -24(%rbp)
	movq	%rsi, -16(%rbp)
	movq	-24(%rbp), %rbx
	movq	-16(%rbp), %rdi
	callq	_ZSt4moveIRN5boost10error_infoINS0_11throw_line_EiEEEONSt16remove_referenceIT_E4typeEOS6_
	movq	%rbx, %rdi
	movq	%rax, %rsi
	callq	_ZN5boost16exception_detail11set_info_rvINS_10error_infoINS_11throw_line_EiEEE3setINS0_10clone_implINS0_14bad_exception_EEEEERKT_SC_OS4_
	addq	$24, %rsp
	popq	%rbx
	popq	%rbp
	.cfi_def_cfa %rsp, 8
	retq
.Lfunc_end130:
	.size	_ZN5boost16exception_detail8set_infoINS0_10clone_implINS0_14bad_exception_EEENS_11throw_line_EiEERKT_S8_ONS_10error_infoIT0_T1_EE, .Lfunc_end130-_ZN5boost16exception_detail8set_infoINS0_10clone_implINS0_14bad_exception_EEENS_11throw_line_EiEERKT_S8_ONS_10error_infoIT0_T1_EE
	.cfi_endproc
                                        # -- End function
	.section	.text._ZN5boost16exception_detail11set_info_rvINS_10error_infoINS_11throw_line_EiEEE3setINS0_10clone_implINS0_14bad_exception_EEEEERKT_SC_OS4_,"axG",@progbits,_ZN5boost16exception_detail11set_info_rvINS_10error_infoINS_11throw_line_EiEEE3setINS0_10clone_implINS0_14bad_exception_EEEEERKT_SC_OS4_,comdat
	.weak	_ZN5boost16exception_detail11set_info_rvINS_10error_infoINS_11throw_line_EiEEE3setINS0_10clone_implINS0_14bad_exception_EEEEERKT_SC_OS4_ # -- Begin function _ZN5boost16exception_detail11set_info_rvINS_10error_infoINS_11throw_line_EiEEE3setINS0_10clone_implINS0_14bad_exception_EEEEERKT_SC_OS4_
	.p2align	4, 0x90
	.type	_ZN5boost16exception_detail11set_info_rvINS_10error_infoINS_11throw_line_EiEEE3setINS0_10clone_implINS0_14bad_exception_EEEEERKT_SC_OS4_,@function
_ZN5boost16exception_detail11set_info_rvINS_10error_infoINS_11throw_line_EiEEE3setINS0_10clone_implINS0_14bad_exception_EEEEERKT_SC_OS4_: # @_ZN5boost16exception_detail11set_info_rvINS_10error_infoINS_11throw_line_EiEEE3setINS0_10clone_implINS0_14bad_exception_EEEEERKT_SC_OS4_
	.cfi_startproc
# %bb.0:
	pushq	%rbp
	.cfi_def_cfa_offset 16
	.cfi_offset %rbp, -16
	movq	%rsp, %rbp
	.cfi_def_cfa_register %rbp
	movq	%rdi, -8(%rbp)
	movq	%rsi, -16(%rbp)
	movq	-16(%rbp), %rax
	movl	(%rax), %eax
	movq	-8(%rbp), %rcx
	movl	%eax, 32(%rcx)
	movq	-8(%rbp), %rax
	popq	%rbp
	.cfi_def_cfa %rsp, 8
	retq
.Lfunc_end131:
	.size	_ZN5boost16exception_detail11set_info_rvINS_10error_infoINS_11throw_line_EiEEE3setINS0_10clone_implINS0_14bad_exception_EEEEERKT_SC_OS4_, .Lfunc_end131-_ZN5boost16exception_detail11set_info_rvINS_10error_infoINS_11throw_line_EiEEE3setINS0_10clone_implINS0_14bad_exception_EEEEERKT_SC_OS4_
	.cfi_endproc
                                        # -- End function
	.section	.text._ZSt4moveIRN5boost10error_infoINS0_11throw_file_EPKcEEEONSt16remove_referenceIT_E4typeEOS8_,"axG",@progbits,_ZSt4moveIRN5boost10error_infoINS0_11throw_file_EPKcEEEONSt16remove_referenceIT_E4typeEOS8_,comdat
	.weak	_ZSt4moveIRN5boost10error_infoINS0_11throw_file_EPKcEEEONSt16remove_referenceIT_E4typeEOS8_ # -- Begin function _ZSt4moveIRN5boost10error_infoINS0_11throw_file_EPKcEEEONSt16remove_referenceIT_E4typeEOS8_
	.p2align	4, 0x90
	.type	_ZSt4moveIRN5boost10error_infoINS0_11throw_file_EPKcEEEONSt16remove_referenceIT_E4typeEOS8_,@function
_ZSt4moveIRN5boost10error_infoINS0_11throw_file_EPKcEEEONSt16remove_referenceIT_E4typeEOS8_: # @_ZSt4moveIRN5boost10error_infoINS0_11throw_file_EPKcEEEONSt16remove_referenceIT_E4typeEOS8_
	.cfi_startproc
# %bb.0:
	pushq	%rbp
	.cfi_def_cfa_offset 16
	.cfi_offset %rbp, -16
	movq	%rsp, %rbp
	.cfi_def_cfa_register %rbp
	movq	%rdi, -8(%rbp)
	movq	-8(%rbp), %rax
	popq	%rbp
	.cfi_def_cfa %rsp, 8
	retq
.Lfunc_end132:
	.size	_ZSt4moveIRN5boost10error_infoINS0_11throw_file_EPKcEEEONSt16remove_referenceIT_E4typeEOS8_, .Lfunc_end132-_ZSt4moveIRN5boost10error_infoINS0_11throw_file_EPKcEEEONSt16remove_referenceIT_E4typeEOS8_
	.cfi_endproc
                                        # -- End function
	.section	.text._ZN5boost16exception_detail8set_infoINS0_10clone_implINS0_14bad_exception_EEENS_11throw_file_EPKcEERKT_SA_ONS_10error_infoIT0_T1_EE,"axG",@progbits,_ZN5boost16exception_detail8set_infoINS0_10clone_implINS0_14bad_exception_EEENS_11throw_file_EPKcEERKT_SA_ONS_10error_infoIT0_T1_EE,comdat
	.weak	_ZN5boost16exception_detail8set_infoINS0_10clone_implINS0_14bad_exception_EEENS_11throw_file_EPKcEERKT_SA_ONS_10error_infoIT0_T1_EE # -- Begin function _ZN5boost16exception_detail8set_infoINS0_10clone_implINS0_14bad_exception_EEENS_11throw_file_EPKcEERKT_SA_ONS_10error_infoIT0_T1_EE
	.p2align	4, 0x90
	.type	_ZN5boost16exception_detail8set_infoINS0_10clone_implINS0_14bad_exception_EEENS_11throw_file_EPKcEERKT_SA_ONS_10error_infoIT0_T1_EE,@function
_ZN5boost16exception_detail8set_infoINS0_10clone_implINS0_14bad_exception_EEENS_11throw_file_EPKcEERKT_SA_ONS_10error_infoIT0_T1_EE: # @_ZN5boost16exception_detail8set_infoINS0_10clone_implINS0_14bad_exception_EEENS_11throw_file_EPKcEERKT_SA_ONS_10error_infoIT0_T1_EE
	.cfi_startproc
# %bb.0:
	pushq	%rbp
	.cfi_def_cfa_offset 16
	.cfi_offset %rbp, -16
	movq	%rsp, %rbp
	.cfi_def_cfa_register %rbp
	pushq	%rbx
	subq	$24, %rsp
	.cfi_offset %rbx, -24
	movq	%rdi, -24(%rbp)
	movq	%rsi, -16(%rbp)
	movq	-24(%rbp), %rbx
	movq	-16(%rbp), %rdi
	callq	_ZSt4moveIRN5boost10error_infoINS0_11throw_file_EPKcEEEONSt16remove_referenceIT_E4typeEOS8_
	movq	%rbx, %rdi
	movq	%rax, %rsi
	callq	_ZN5boost16exception_detail11set_info_rvINS_10error_infoINS_11throw_file_EPKcEEE3setINS0_10clone_implINS0_14bad_exception_EEEEERKT_SE_OS6_
	addq	$24, %rsp
	popq	%rbx
	popq	%rbp
	.cfi_def_cfa %rsp, 8
	retq
.Lfunc_end133:
	.size	_ZN5boost16exception_detail8set_infoINS0_10clone_implINS0_14bad_exception_EEENS_11throw_file_EPKcEERKT_SA_ONS_10error_infoIT0_T1_EE, .Lfunc_end133-_ZN5boost16exception_detail8set_infoINS0_10clone_implINS0_14bad_exception_EEENS_11throw_file_EPKcEERKT_SA_ONS_10error_infoIT0_T1_EE
	.cfi_endproc
                                        # -- End function
	.section	.text._ZN5boost16exception_detail11set_info_rvINS_10error_infoINS_11throw_file_EPKcEEE3setINS0_10clone_implINS0_14bad_exception_EEEEERKT_SE_OS6_,"axG",@progbits,_ZN5boost16exception_detail11set_info_rvINS_10error_infoINS_11throw_file_EPKcEEE3setINS0_10clone_implINS0_14bad_exception_EEEEERKT_SE_OS6_,comdat
	.weak	_ZN5boost16exception_detail11set_info_rvINS_10error_infoINS_11throw_file_EPKcEEE3setINS0_10clone_implINS0_14bad_exception_EEEEERKT_SE_OS6_ # -- Begin function _ZN5boost16exception_detail11set_info_rvINS_10error_infoINS_11throw_file_EPKcEEE3setINS0_10clone_implINS0_14bad_exception_EEEEERKT_SE_OS6_
	.p2align	4, 0x90
	.type	_ZN5boost16exception_detail11set_info_rvINS_10error_infoINS_11throw_file_EPKcEEE3setINS0_10clone_implINS0_14bad_exception_EEEEERKT_SE_OS6_,@function
_ZN5boost16exception_detail11set_info_rvINS_10error_infoINS_11throw_file_EPKcEEE3setINS0_10clone_implINS0_14bad_exception_EEEEERKT_SE_OS6_: # @_ZN5boost16exception_detail11set_info_rvINS_10error_infoINS_11throw_file_EPKcEEE3setINS0_10clone_implINS0_14bad_exception_EEEEERKT_SE_OS6_
	.cfi_startproc
# %bb.0:
	pushq	%rbp
	.cfi_def_cfa_offset 16
	.cfi_offset %rbp, -16
	movq	%rsp, %rbp
	.cfi_def_cfa_register %rbp
	movq	%rdi, -8(%rbp)
	movq	%rsi, -16(%rbp)
	movq	-16(%rbp), %rax
	movq	(%rax), %rax
	movq	-8(%rbp), %rcx
	movq	%rax, 24(%rcx)
	movq	-8(%rbp), %rax
	popq	%rbp
	.cfi_def_cfa %rsp, 8
	retq
.Lfunc_end134:
	.size	_ZN5boost16exception_detail11set_info_rvINS_10error_infoINS_11throw_file_EPKcEEE3setINS0_10clone_implINS0_14bad_exception_EEEEERKT_SE_OS6_, .Lfunc_end134-_ZN5boost16exception_detail11set_info_rvINS_10error_infoINS_11throw_file_EPKcEEE3setINS0_10clone_implINS0_14bad_exception_EEEEERKT_SE_OS6_
	.cfi_endproc
                                        # -- End function
	.section	.text._ZSt4moveIRN5boost10error_infoINS0_15throw_function_EPKcEEEONSt16remove_referenceIT_E4typeEOS8_,"axG",@progbits,_ZSt4moveIRN5boost10error_infoINS0_15throw_function_EPKcEEEONSt16remove_referenceIT_E4typeEOS8_,comdat
	.weak	_ZSt4moveIRN5boost10error_infoINS0_15throw_function_EPKcEEEONSt16remove_referenceIT_E4typeEOS8_ # -- Begin function _ZSt4moveIRN5boost10error_infoINS0_15throw_function_EPKcEEEONSt16remove_referenceIT_E4typeEOS8_
	.p2align	4, 0x90
	.type	_ZSt4moveIRN5boost10error_infoINS0_15throw_function_EPKcEEEONSt16remove_referenceIT_E4typeEOS8_,@function
_ZSt4moveIRN5boost10error_infoINS0_15throw_function_EPKcEEEONSt16remove_referenceIT_E4typeEOS8_: # @_ZSt4moveIRN5boost10error_infoINS0_15throw_function_EPKcEEEONSt16remove_referenceIT_E4typeEOS8_
	.cfi_startproc
# %bb.0:
	pushq	%rbp
	.cfi_def_cfa_offset 16
	.cfi_offset %rbp, -16
	movq	%rsp, %rbp
	.cfi_def_cfa_register %rbp
	movq	%rdi, -8(%rbp)
	movq	-8(%rbp), %rax
	popq	%rbp
	.cfi_def_cfa %rsp, 8
	retq
.Lfunc_end135:
	.size	_ZSt4moveIRN5boost10error_infoINS0_15throw_function_EPKcEEEONSt16remove_referenceIT_E4typeEOS8_, .Lfunc_end135-_ZSt4moveIRN5boost10error_infoINS0_15throw_function_EPKcEEEONSt16remove_referenceIT_E4typeEOS8_
	.cfi_endproc
                                        # -- End function
	.section	.text._ZN5boost16exception_detail8set_infoINS0_10clone_implINS0_14bad_exception_EEENS_15throw_function_EPKcEERKT_SA_ONS_10error_infoIT0_T1_EE,"axG",@progbits,_ZN5boost16exception_detail8set_infoINS0_10clone_implINS0_14bad_exception_EEENS_15throw_function_EPKcEERKT_SA_ONS_10error_infoIT0_T1_EE,comdat
	.weak	_ZN5boost16exception_detail8set_infoINS0_10clone_implINS0_14bad_exception_EEENS_15throw_function_EPKcEERKT_SA_ONS_10error_infoIT0_T1_EE # -- Begin function _ZN5boost16exception_detail8set_infoINS0_10clone_implINS0_14bad_exception_EEENS_15throw_function_EPKcEERKT_SA_ONS_10error_infoIT0_T1_EE
	.p2align	4, 0x90
	.type	_ZN5boost16exception_detail8set_infoINS0_10clone_implINS0_14bad_exception_EEENS_15throw_function_EPKcEERKT_SA_ONS_10error_infoIT0_T1_EE,@function
_ZN5boost16exception_detail8set_infoINS0_10clone_implINS0_14bad_exception_EEENS_15throw_function_EPKcEERKT_SA_ONS_10error_infoIT0_T1_EE: # @_ZN5boost16exception_detail8set_infoINS0_10clone_implINS0_14bad_exception_EEENS_15throw_function_EPKcEERKT_SA_ONS_10error_infoIT0_T1_EE
	.cfi_startproc
# %bb.0:
	pushq	%rbp
	.cfi_def_cfa_offset 16
	.cfi_offset %rbp, -16
	movq	%rsp, %rbp
	.cfi_def_cfa_register %rbp
	pushq	%rbx
	subq	$24, %rsp
	.cfi_offset %rbx, -24
	movq	%rdi, -24(%rbp)
	movq	%rsi, -16(%rbp)
	movq	-24(%rbp), %rbx
	movq	-16(%rbp), %rdi
	callq	_ZSt4moveIRN5boost10error_infoINS0_15throw_function_EPKcEEEONSt16remove_referenceIT_E4typeEOS8_
	movq	%rbx, %rdi
	movq	%rax, %rsi
	callq	_ZN5boost16exception_detail11set_info_rvINS_10error_infoINS_15throw_function_EPKcEEE3setINS0_10clone_implINS0_14bad_exception_EEEEERKT_SE_OS6_
	addq	$24, %rsp
	popq	%rbx
	popq	%rbp
	.cfi_def_cfa %rsp, 8
	retq
.Lfunc_end136:
	.size	_ZN5boost16exception_detail8set_infoINS0_10clone_implINS0_14bad_exception_EEENS_15throw_function_EPKcEERKT_SA_ONS_10error_infoIT0_T1_EE, .Lfunc_end136-_ZN5boost16exception_detail8set_infoINS0_10clone_implINS0_14bad_exception_EEENS_15throw_function_EPKcEERKT_SA_ONS_10error_infoIT0_T1_EE
	.cfi_endproc
                                        # -- End function
	.section	.text._ZN5boost16exception_detail11set_info_rvINS_10error_infoINS_15throw_function_EPKcEEE3setINS0_10clone_implINS0_14bad_exception_EEEEERKT_SE_OS6_,"axG",@progbits,_ZN5boost16exception_detail11set_info_rvINS_10error_infoINS_15throw_function_EPKcEEE3setINS0_10clone_implINS0_14bad_exception_EEEEERKT_SE_OS6_,comdat
	.weak	_ZN5boost16exception_detail11set_info_rvINS_10error_infoINS_15throw_function_EPKcEEE3setINS0_10clone_implINS0_14bad_exception_EEEEERKT_SE_OS6_ # -- Begin function _ZN5boost16exception_detail11set_info_rvINS_10error_infoINS_15throw_function_EPKcEEE3setINS0_10clone_implINS0_14bad_exception_EEEEERKT_SE_OS6_
	.p2align	4, 0x90
	.type	_ZN5boost16exception_detail11set_info_rvINS_10error_infoINS_15throw_function_EPKcEEE3setINS0_10clone_implINS0_14bad_exception_EEEEERKT_SE_OS6_,@function
_ZN5boost16exception_detail11set_info_rvINS_10error_infoINS_15throw_function_EPKcEEE3setINS0_10clone_implINS0_14bad_exception_EEEEERKT_SE_OS6_: # @_ZN5boost16exception_detail11set_info_rvINS_10error_infoINS_15throw_function_EPKcEEE3setINS0_10clone_implINS0_14bad_exception_EEEEERKT_SE_OS6_
	.cfi_startproc
# %bb.0:
	pushq	%rbp
	.cfi_def_cfa_offset 16
	.cfi_offset %rbp, -16
	movq	%rsp, %rbp
	.cfi_def_cfa_register %rbp
	movq	%rdi, -8(%rbp)
	movq	%rsi, -16(%rbp)
	movq	-16(%rbp), %rax
	movq	(%rax), %rax
	movq	-8(%rbp), %rcx
	movq	%rax, 16(%rcx)
	movq	-8(%rbp), %rax
	popq	%rbp
	.cfi_def_cfa %rsp, 8
	retq
.Lfunc_end137:
	.size	_ZN5boost16exception_detail11set_info_rvINS_10error_infoINS_15throw_function_EPKcEEE3setINS0_10clone_implINS0_14bad_exception_EEEEERKT_SE_OS6_, .Lfunc_end137-_ZN5boost16exception_detail11set_info_rvINS_10error_infoINS_15throw_function_EPKcEEE3setINS0_10clone_implINS0_14bad_exception_EEEEERKT_SE_OS6_
	.cfi_endproc
                                        # -- End function
	.section	.text._ZNSt13bad_exceptionC2Ev,"axG",@progbits,_ZNSt13bad_exceptionC2Ev,comdat
	.weak	_ZNSt13bad_exceptionC2Ev # -- Begin function _ZNSt13bad_exceptionC2Ev
	.p2align	4, 0x90
	.type	_ZNSt13bad_exceptionC2Ev,@function
_ZNSt13bad_exceptionC2Ev:               # @_ZNSt13bad_exceptionC2Ev
	.cfi_startproc
# %bb.0:
	pushq	%rbp
	.cfi_def_cfa_offset 16
	.cfi_offset %rbp, -16
	movq	%rsp, %rbp
	.cfi_def_cfa_register %rbp
	pushq	%rbx
	pushq	%rax
	.cfi_offset %rbx, -24
	movq	%rdi, -16(%rbp)
	movq	-16(%rbp), %rbx
	movq	%rbx, %rdi
	callq	_ZNSt9exceptionC2Ev
	movabsq	$_ZTVSt13bad_exception, %rax
	addq	$16, %rax
	movq	%rax, (%rbx)
	addq	$8, %rsp
	popq	%rbx
	popq	%rbp
	.cfi_def_cfa %rsp, 8
	retq
.Lfunc_end138:
	.size	_ZNSt13bad_exceptionC2Ev, .Lfunc_end138-_ZNSt13bad_exceptionC2Ev
	.cfi_endproc
                                        # -- End function
	.section	.text._ZNSt9exceptionC2Ev,"axG",@progbits,_ZNSt9exceptionC2Ev,comdat
	.weak	_ZNSt9exceptionC2Ev     # -- Begin function _ZNSt9exceptionC2Ev
	.p2align	4, 0x90
	.type	_ZNSt9exceptionC2Ev,@function
_ZNSt9exceptionC2Ev:                    # @_ZNSt9exceptionC2Ev
	.cfi_startproc
# %bb.0:
	pushq	%rbp
	.cfi_def_cfa_offset 16
	.cfi_offset %rbp, -16
	movq	%rsp, %rbp
	.cfi_def_cfa_register %rbp
	movabsq	$_ZTVSt9exception, %rax
	addq	$16, %rax
	movq	%rdi, -8(%rbp)
	movq	-8(%rbp), %rcx
	movq	%rax, (%rcx)
	popq	%rbp
	.cfi_def_cfa %rsp, 8
	retq
.Lfunc_end139:
	.size	_ZNSt9exceptionC2Ev, .Lfunc_end139-_ZNSt9exceptionC2Ev
	.cfi_endproc
                                        # -- End function
	.section	.text._ZN5boost16exception_detail27get_static_exception_objectINS0_10bad_alloc_EEENS_13exception_ptrEv,"axG",@progbits,_ZN5boost16exception_detail27get_static_exception_objectINS0_10bad_alloc_EEENS_13exception_ptrEv,comdat
	.weak	_ZN5boost16exception_detail27get_static_exception_objectINS0_10bad_alloc_EEENS_13exception_ptrEv # -- Begin function _ZN5boost16exception_detail27get_static_exception_objectINS0_10bad_alloc_EEENS_13exception_ptrEv
	.p2align	4, 0x90
	.type	_ZN5boost16exception_detail27get_static_exception_objectINS0_10bad_alloc_EEENS_13exception_ptrEv,@function
_ZN5boost16exception_detail27get_static_exception_objectINS0_10bad_alloc_EEENS_13exception_ptrEv: # @_ZN5boost16exception_detail27get_static_exception_objectINS0_10bad_alloc_EEENS_13exception_ptrEv
.Lfunc_begin24:
	.cfi_startproc
	.cfi_personality 3, __gxx_personality_v0
	.cfi_lsda 3, .Lexception24
# %bb.0:
	pushq	%rbp
	.cfi_def_cfa_offset 16
	.cfi_offset %rbp, -16
	movq	%rsp, %rbp
	.cfi_def_cfa_register %rbp
	pushq	%r15
	pushq	%r14
	pushq	%rbx
	subq	$168, %rsp
	.cfi_offset %rbx, -40
	.cfi_offset %r14, -32
	.cfi_offset %r15, -24
	movq	%rdi, %r15
	movq	%r15, -88(%rbp)
	leaq	-192(%rbp), %rbx
	movq	%rbx, %rdi
	callq	_ZN5boost16exception_detail10bad_alloc_C2Ev
.Ltmp141:
	leaq	-144(%rbp), %rdi
	movq	%rbx, %rsi
	callq	_ZN5boost16exception_detail10clone_implINS0_10bad_alloc_EEC1ERKS2_
.Ltmp142:
	jmp	.LBB140_1
.LBB140_1:
.Ltmp144:
	leaq	-80(%rbp), %rdi
	movl	$.L__PRETTY_FUNCTION__._ZN5boost16exception_detail27get_static_exception_objectINS0_10bad_alloc_EEENS_13exception_ptrEv, %esi
	callq	_ZN5boost10error_infoINS_15throw_function_EPKcEC2ES3_
.Ltmp145:
	jmp	.LBB140_2
.LBB140_2:
.Ltmp146:
	leaq	-144(%rbp), %rdi
	leaq	-80(%rbp), %rsi
	callq	_ZN5boostlsINS_16exception_detail10clone_implINS1_10bad_alloc_EEENS_15throw_function_EPKcEENS_9enable_ifINS1_23derives_boost_exceptionIT_EERKSA_E4typeESD_ONS_10error_infoIT0_T1_EE
	movq	%rax, %r14
.Ltmp147:
	jmp	.LBB140_3
.LBB140_3:
.Ltmp148:
	leaq	-72(%rbp), %rdi
	movl	$.L.str.13, %esi
	callq	_ZN5boost10error_infoINS_11throw_file_EPKcEC2ES3_
.Ltmp149:
	jmp	.LBB140_4
.LBB140_4:
.Ltmp150:
	leaq	-72(%rbp), %rsi
	movq	%r14, %rdi
	callq	_ZN5boostlsINS_16exception_detail10clone_implINS1_10bad_alloc_EEENS_11throw_file_EPKcEENS_9enable_ifINS1_23derives_boost_exceptionIT_EERKSA_E4typeESD_ONS_10error_infoIT0_T1_EE
	movq	%rax, %r14
.Ltmp151:
	jmp	.LBB140_5
.LBB140_5:
.Ltmp152:
	leaq	-48(%rbp), %rdi
	movl	$129, %esi
	callq	_ZN5boost10error_infoINS_11throw_line_EiEC2Ei
.Ltmp153:
	jmp	.LBB140_6
.LBB140_6:
.Ltmp154:
	leaq	-48(%rbp), %rsi
	movq	%r14, %rdi
	callq	_ZN5boostlsINS_16exception_detail10clone_implINS1_10bad_alloc_EEENS_11throw_line_EiEENS_9enable_ifINS1_23derives_boost_exceptionIT_EERKS8_E4typeESB_ONS_10error_infoIT0_T1_EE
.Ltmp155:
	jmp	.LBB140_7
.LBB140_7:
	cmpb	$0, _ZGVZN5boost16exception_detail27get_static_exception_objectINS0_10bad_alloc_EEENS_13exception_ptrEvE2ep
	jne	.LBB140_14
# %bb.8:
	movabsq	$_ZGVZN5boost16exception_detail27get_static_exception_objectINS0_10bad_alloc_EEENS_13exception_ptrEvE2ep, %rdi
	callq	__cxa_guard_acquire
	cmpl	$0, %eax
	je	.LBB140_14
# %bb.9:
.Ltmp157:
	movl	$56, %edi
	callq	_Znwm
	movq	%rax, %r14
.Ltmp158:
	jmp	.LBB140_10
.LBB140_10:
.Ltmp159:
	leaq	-144(%rbp), %rsi
	movq	%r14, %rdi
	callq	_ZN5boost16exception_detail10clone_implINS0_10bad_alloc_EEC1ERKS3_
.Ltmp160:
	jmp	.LBB140_11
.LBB140_11:
.Ltmp162:
	leaq	-64(%rbp), %rdi
	movq	%r14, %rsi
	callq	_ZN5boost10shared_ptrIKNS_16exception_detail10clone_baseEEC2INS1_10clone_implINS1_10bad_alloc_EEEEEPT_
.Ltmp163:
	jmp	.LBB140_12
.LBB140_12:
.Ltmp165:
	leaq	-64(%rbp), %rsi
	movl	$_ZZN5boost16exception_detail27get_static_exception_objectINS0_10bad_alloc_EEENS_13exception_ptrEvE2ep, %edi
	callq	_ZN5boost13exception_ptrC2ERKNS_10shared_ptrIKNS_16exception_detail10clone_baseEEE
.Ltmp166:
	jmp	.LBB140_13
.LBB140_13:
	leaq	-64(%rbp), %rdi
	callq	_ZN5boost10shared_ptrIKNS_16exception_detail10clone_baseEED2Ev
	movabsq	$_ZN5boost13exception_ptrD2Ev, %rdi
	movabsq	$_ZZN5boost16exception_detail27get_static_exception_objectINS0_10bad_alloc_EEENS_13exception_ptrEvE2ep, %rsi
	movabsq	$__dso_handle, %rdx
	callq	__cxa_atexit
	movabsq	$_ZGVZN5boost16exception_detail27get_static_exception_objectINS0_10bad_alloc_EEENS_13exception_ptrEvE2ep, %rdi
	callq	__cxa_guard_release
.LBB140_14:
	movq	%r15, %rdi
	movabsq	$_ZZN5boost16exception_detail27get_static_exception_objectINS0_10bad_alloc_EEENS_13exception_ptrEvE2ep, %rsi
	callq	_ZN5boost13exception_ptrC2ERKS0_
	leaq	-144(%rbp), %rdi
	callq	_ZN5boost16exception_detail10clone_implINS0_10bad_alloc_EED1Ev
	leaq	-192(%rbp), %rdi
	callq	_ZN5boost16exception_detail10bad_alloc_D2Ev
	movq	%r15, %rax
	addq	$168, %rsp
	popq	%rbx
	popq	%r14
	popq	%r15
	popq	%rbp
	.cfi_def_cfa %rsp, 8
	retq
.LBB140_15:
	.cfi_def_cfa %rbp, 16
.Ltmp143:
	movq	%rax, -40(%rbp)
	movl	%edx, -28(%rbp)
	jmp	.LBB140_22
.LBB140_16:
.Ltmp156:
	movq	%rax, -40(%rbp)
	movl	%edx, -28(%rbp)
	jmp	.LBB140_21
.LBB140_17:
.Ltmp164:
	movq	%rax, -40(%rbp)
	movl	%edx, -28(%rbp)
	jmp	.LBB140_20
.LBB140_18:
.Ltmp161:
	movq	%rax, -40(%rbp)
	movl	%edx, -28(%rbp)
	movq	%r14, %rdi
	callq	_ZdlPv
	jmp	.LBB140_20
.LBB140_19:
.Ltmp167:
	movq	%rax, -40(%rbp)
	movl	%edx, -28(%rbp)
	leaq	-64(%rbp), %rdi
	callq	_ZN5boost10shared_ptrIKNS_16exception_detail10clone_baseEED2Ev
.LBB140_20:
	movabsq	$_ZGVZN5boost16exception_detail27get_static_exception_objectINS0_10bad_alloc_EEENS_13exception_ptrEvE2ep, %rdi
	callq	__cxa_guard_abort
.LBB140_21:
	leaq	-144(%rbp), %rdi
	callq	_ZN5boost16exception_detail10clone_implINS0_10bad_alloc_EED1Ev
.LBB140_22:
	leaq	-192(%rbp), %rdi
	callq	_ZN5boost16exception_detail10bad_alloc_D2Ev
# %bb.23:
	movq	-40(%rbp), %rdi
	callq	_Unwind_Resume
.Lfunc_end140:
	.size	_ZN5boost16exception_detail27get_static_exception_objectINS0_10bad_alloc_EEENS_13exception_ptrEv, .Lfunc_end140-_ZN5boost16exception_detail27get_static_exception_objectINS0_10bad_alloc_EEENS_13exception_ptrEv
	.cfi_endproc
	.section	.gcc_except_table,"a",@progbits
	.p2align	2
GCC_except_table140:
.Lexception24:
	.byte	255                     # @LPStart Encoding = omit
	.byte	255                     # @TType Encoding = omit
	.byte	1                       # Call site Encoding = uleb128
	.uleb128 .Lcst_end24-.Lcst_begin24
.Lcst_begin24:
	.uleb128 .Lfunc_begin24-.Lfunc_begin24 # >> Call Site 1 <<
	.uleb128 .Ltmp141-.Lfunc_begin24 #   Call between .Lfunc_begin24 and .Ltmp141
	.byte	0                       #     has no landing pad
	.byte	0                       #   On action: cleanup
	.uleb128 .Ltmp141-.Lfunc_begin24 # >> Call Site 2 <<
	.uleb128 .Ltmp142-.Ltmp141      #   Call between .Ltmp141 and .Ltmp142
	.uleb128 .Ltmp143-.Lfunc_begin24 #     jumps to .Ltmp143
	.byte	0                       #   On action: cleanup
	.uleb128 .Ltmp144-.Lfunc_begin24 # >> Call Site 3 <<
	.uleb128 .Ltmp155-.Ltmp144      #   Call between .Ltmp144 and .Ltmp155
	.uleb128 .Ltmp156-.Lfunc_begin24 #     jumps to .Ltmp156
	.byte	0                       #   On action: cleanup
	.uleb128 .Ltmp157-.Lfunc_begin24 # >> Call Site 4 <<
	.uleb128 .Ltmp158-.Ltmp157      #   Call between .Ltmp157 and .Ltmp158
	.uleb128 .Ltmp164-.Lfunc_begin24 #     jumps to .Ltmp164
	.byte	0                       #   On action: cleanup
	.uleb128 .Ltmp159-.Lfunc_begin24 # >> Call Site 5 <<
	.uleb128 .Ltmp160-.Ltmp159      #   Call between .Ltmp159 and .Ltmp160
	.uleb128 .Ltmp161-.Lfunc_begin24 #     jumps to .Ltmp161
	.byte	0                       #   On action: cleanup
	.uleb128 .Ltmp162-.Lfunc_begin24 # >> Call Site 6 <<
	.uleb128 .Ltmp163-.Ltmp162      #   Call between .Ltmp162 and .Ltmp163
	.uleb128 .Ltmp164-.Lfunc_begin24 #     jumps to .Ltmp164
	.byte	0                       #   On action: cleanup
	.uleb128 .Ltmp165-.Lfunc_begin24 # >> Call Site 7 <<
	.uleb128 .Ltmp166-.Ltmp165      #   Call between .Ltmp165 and .Ltmp166
	.uleb128 .Ltmp167-.Lfunc_begin24 #     jumps to .Ltmp167
	.byte	0                       #   On action: cleanup
	.uleb128 .Ltmp166-.Lfunc_begin24 # >> Call Site 8 <<
	.uleb128 .Lfunc_end140-.Ltmp166 #   Call between .Ltmp166 and .Lfunc_end140
	.byte	0                       #     has no landing pad
	.byte	0                       #   On action: cleanup
.Lcst_end24:
	.p2align	2
                                        # -- End function
	.section	.text._ZN5boost16exception_detail10bad_alloc_C2Ev,"axG",@progbits,_ZN5boost16exception_detail10bad_alloc_C2Ev,comdat
	.weak	_ZN5boost16exception_detail10bad_alloc_C2Ev # -- Begin function _ZN5boost16exception_detail10bad_alloc_C2Ev
	.p2align	4, 0x90
	.type	_ZN5boost16exception_detail10bad_alloc_C2Ev,@function
_ZN5boost16exception_detail10bad_alloc_C2Ev: # @_ZN5boost16exception_detail10bad_alloc_C2Ev
	.cfi_startproc
# %bb.0:
	pushq	%rbp
	.cfi_def_cfa_offset 16
	.cfi_offset %rbp, -16
	movq	%rsp, %rbp
	.cfi_def_cfa_register %rbp
	pushq	%rbx
	pushq	%rax
	.cfi_offset %rbx, -24
	movq	%rdi, -16(%rbp)
	movq	-16(%rbp), %rbx
	movq	%rbx, %rdi
	callq	_ZN5boost9exceptionC2Ev
	movq	%rbx, %rdi
	addq	$40, %rdi
	callq	_ZNSt9bad_allocC2Ev
	movabsq	$_ZTVN5boost16exception_detail10bad_alloc_E, %rax
	movq	%rax, %rcx
	addq	$48, %rcx
	addq	$16, %rax
	movq	%rax, (%rbx)
	movq	%rcx, 40(%rbx)
	addq	$8, %rsp
	popq	%rbx
	popq	%rbp
	.cfi_def_cfa %rsp, 8
	retq
.Lfunc_end141:
	.size	_ZN5boost16exception_detail10bad_alloc_C2Ev, .Lfunc_end141-_ZN5boost16exception_detail10bad_alloc_C2Ev
	.cfi_endproc
                                        # -- End function
	.section	.text._ZN5boost16exception_detail10clone_implINS0_10bad_alloc_EEC1ERKS2_,"axG",@progbits,_ZN5boost16exception_detail10clone_implINS0_10bad_alloc_EEC1ERKS2_,comdat
	.weak	_ZN5boost16exception_detail10clone_implINS0_10bad_alloc_EEC1ERKS2_ # -- Begin function _ZN5boost16exception_detail10clone_implINS0_10bad_alloc_EEC1ERKS2_
	.p2align	4, 0x90
	.type	_ZN5boost16exception_detail10clone_implINS0_10bad_alloc_EEC1ERKS2_,@function
_ZN5boost16exception_detail10clone_implINS0_10bad_alloc_EEC1ERKS2_: # @_ZN5boost16exception_detail10clone_implINS0_10bad_alloc_EEC1ERKS2_
.Lfunc_begin25:
	.cfi_startproc
	.cfi_personality 3, __gxx_personality_v0
	.cfi_lsda 3, .Lexception25
# %bb.0:
	pushq	%rbp
	.cfi_def_cfa_offset 16
	.cfi_offset %rbp, -16
	movq	%rsp, %rbp
	.cfi_def_cfa_register %rbp
	pushq	%rbx
	subq	$40, %rsp
	.cfi_offset %rbx, -24
	movq	%rdi, -40(%rbp)
	movq	%rsi, -32(%rbp)
	movq	-40(%rbp), %rbx
	movq	%rbx, %rdi
	addq	$48, %rdi
	callq	_ZN5boost16exception_detail10clone_baseC2Ev
	movq	-32(%rbp), %rsi
.Ltmp168:
	movq	%rbx, %rdi
	callq	_ZN5boost16exception_detail10bad_alloc_C2ERKS1_
.Ltmp169:
	jmp	.LBB142_1
.LBB142_1:
	movq	$_ZTVN5boost16exception_detail10clone_implINS0_10bad_alloc_EEE+24, (%rbx)
	movq	$_ZTVN5boost16exception_detail10clone_implINS0_10bad_alloc_EEE+72, 40(%rbx)
	movq	$_ZTVN5boost16exception_detail10clone_implINS0_10bad_alloc_EEE+136, 48(%rbx)
	movq	-32(%rbp), %rsi
.Ltmp171:
	movq	%rbx, %rdi
	callq	_ZN5boost16exception_detail20copy_boost_exceptionEPNS_9exceptionEPKS1_
.Ltmp172:
	jmp	.LBB142_2
.LBB142_2:
	addq	$40, %rsp
	popq	%rbx
	popq	%rbp
	.cfi_def_cfa %rsp, 8
	retq
.LBB142_3:
	.cfi_def_cfa %rbp, 16
.Ltmp170:
	movq	%rax, -24(%rbp)
	movl	%edx, -12(%rbp)
	jmp	.LBB142_5
.LBB142_4:
.Ltmp173:
	movq	%rax, -24(%rbp)
	movl	%edx, -12(%rbp)
	movq	%rbx, %rdi
	callq	_ZN5boost16exception_detail10bad_alloc_D2Ev
.LBB142_5:
	addq	$48, %rbx
	movq	%rbx, %rdi
	callq	_ZN5boost16exception_detail10clone_baseD2Ev
# %bb.6:
	movq	-24(%rbp), %rdi
	callq	_Unwind_Resume
.Lfunc_end142:
	.size	_ZN5boost16exception_detail10clone_implINS0_10bad_alloc_EEC1ERKS2_, .Lfunc_end142-_ZN5boost16exception_detail10clone_implINS0_10bad_alloc_EEC1ERKS2_
	.cfi_endproc
	.section	.gcc_except_table,"a",@progbits
	.p2align	2
GCC_except_table142:
.Lexception25:
	.byte	255                     # @LPStart Encoding = omit
	.byte	255                     # @TType Encoding = omit
	.byte	1                       # Call site Encoding = uleb128
	.uleb128 .Lcst_end25-.Lcst_begin25
.Lcst_begin25:
	.uleb128 .Ltmp168-.Lfunc_begin25 # >> Call Site 1 <<
	.uleb128 .Ltmp169-.Ltmp168      #   Call between .Ltmp168 and .Ltmp169
	.uleb128 .Ltmp170-.Lfunc_begin25 #     jumps to .Ltmp170
	.byte	0                       #   On action: cleanup
	.uleb128 .Ltmp171-.Lfunc_begin25 # >> Call Site 2 <<
	.uleb128 .Ltmp172-.Ltmp171      #   Call between .Ltmp171 and .Ltmp172
	.uleb128 .Ltmp173-.Lfunc_begin25 #     jumps to .Ltmp173
	.byte	0                       #   On action: cleanup
	.uleb128 .Ltmp172-.Lfunc_begin25 # >> Call Site 3 <<
	.uleb128 .Lfunc_end142-.Ltmp172 #   Call between .Ltmp172 and .Lfunc_end142
	.byte	0                       #     has no landing pad
	.byte	0                       #   On action: cleanup
.Lcst_end25:
	.p2align	2
                                        # -- End function
	.section	.text._ZN5boostlsINS_16exception_detail10clone_implINS1_10bad_alloc_EEENS_15throw_function_EPKcEENS_9enable_ifINS1_23derives_boost_exceptionIT_EERKSA_E4typeESD_ONS_10error_infoIT0_T1_EE,"axG",@progbits,_ZN5boostlsINS_16exception_detail10clone_implINS1_10bad_alloc_EEENS_15throw_function_EPKcEENS_9enable_ifINS1_23derives_boost_exceptionIT_EERKSA_E4typeESD_ONS_10error_infoIT0_T1_EE,comdat
	.weak	_ZN5boostlsINS_16exception_detail10clone_implINS1_10bad_alloc_EEENS_15throw_function_EPKcEENS_9enable_ifINS1_23derives_boost_exceptionIT_EERKSA_E4typeESD_ONS_10error_infoIT0_T1_EE # -- Begin function _ZN5boostlsINS_16exception_detail10clone_implINS1_10bad_alloc_EEENS_15throw_function_EPKcEENS_9enable_ifINS1_23derives_boost_exceptionIT_EERKSA_E4typeESD_ONS_10error_infoIT0_T1_EE
	.p2align	4, 0x90
	.type	_ZN5boostlsINS_16exception_detail10clone_implINS1_10bad_alloc_EEENS_15throw_function_EPKcEENS_9enable_ifINS1_23derives_boost_exceptionIT_EERKSA_E4typeESD_ONS_10error_infoIT0_T1_EE,@function
_ZN5boostlsINS_16exception_detail10clone_implINS1_10bad_alloc_EEENS_15throw_function_EPKcEENS_9enable_ifINS1_23derives_boost_exceptionIT_EERKSA_E4typeESD_ONS_10error_infoIT0_T1_EE: # @_ZN5boostlsINS_16exception_detail10clone_implINS1_10bad_alloc_EEENS_15throw_function_EPKcEENS_9enable_ifINS1_23derives_boost_exceptionIT_EERKSA_E4typeESD_ONS_10error_infoIT0_T1_EE
	.cfi_startproc
# %bb.0:
	pushq	%rbp
	.cfi_def_cfa_offset 16
	.cfi_offset %rbp, -16
	movq	%rsp, %rbp
	.cfi_def_cfa_register %rbp
	pushq	%rbx
	subq	$24, %rsp
	.cfi_offset %rbx, -24
	movq	%rdi, -24(%rbp)
	movq	%rsi, -16(%rbp)
	movq	-24(%rbp), %rbx
	movq	-16(%rbp), %rdi
	callq	_ZSt4moveIRN5boost10error_infoINS0_15throw_function_EPKcEEEONSt16remove_referenceIT_E4typeEOS8_
	movq	%rbx, %rdi
	movq	%rax, %rsi
	callq	_ZN5boost16exception_detail8set_infoINS0_10clone_implINS0_10bad_alloc_EEENS_15throw_function_EPKcEERKT_SA_ONS_10error_infoIT0_T1_EE
	addq	$24, %rsp
	popq	%rbx
	popq	%rbp
	.cfi_def_cfa %rsp, 8
	retq
.Lfunc_end143:
	.size	_ZN5boostlsINS_16exception_detail10clone_implINS1_10bad_alloc_EEENS_15throw_function_EPKcEENS_9enable_ifINS1_23derives_boost_exceptionIT_EERKSA_E4typeESD_ONS_10error_infoIT0_T1_EE, .Lfunc_end143-_ZN5boostlsINS_16exception_detail10clone_implINS1_10bad_alloc_EEENS_15throw_function_EPKcEENS_9enable_ifINS1_23derives_boost_exceptionIT_EERKSA_E4typeESD_ONS_10error_infoIT0_T1_EE
	.cfi_endproc
                                        # -- End function
	.section	.text._ZN5boostlsINS_16exception_detail10clone_implINS1_10bad_alloc_EEENS_11throw_file_EPKcEENS_9enable_ifINS1_23derives_boost_exceptionIT_EERKSA_E4typeESD_ONS_10error_infoIT0_T1_EE,"axG",@progbits,_ZN5boostlsINS_16exception_detail10clone_implINS1_10bad_alloc_EEENS_11throw_file_EPKcEENS_9enable_ifINS1_23derives_boost_exceptionIT_EERKSA_E4typeESD_ONS_10error_infoIT0_T1_EE,comdat
	.weak	_ZN5boostlsINS_16exception_detail10clone_implINS1_10bad_alloc_EEENS_11throw_file_EPKcEENS_9enable_ifINS1_23derives_boost_exceptionIT_EERKSA_E4typeESD_ONS_10error_infoIT0_T1_EE # -- Begin function _ZN5boostlsINS_16exception_detail10clone_implINS1_10bad_alloc_EEENS_11throw_file_EPKcEENS_9enable_ifINS1_23derives_boost_exceptionIT_EERKSA_E4typeESD_ONS_10error_infoIT0_T1_EE
	.p2align	4, 0x90
	.type	_ZN5boostlsINS_16exception_detail10clone_implINS1_10bad_alloc_EEENS_11throw_file_EPKcEENS_9enable_ifINS1_23derives_boost_exceptionIT_EERKSA_E4typeESD_ONS_10error_infoIT0_T1_EE,@function
_ZN5boostlsINS_16exception_detail10clone_implINS1_10bad_alloc_EEENS_11throw_file_EPKcEENS_9enable_ifINS1_23derives_boost_exceptionIT_EERKSA_E4typeESD_ONS_10error_infoIT0_T1_EE: # @_ZN5boostlsINS_16exception_detail10clone_implINS1_10bad_alloc_EEENS_11throw_file_EPKcEENS_9enable_ifINS1_23derives_boost_exceptionIT_EERKSA_E4typeESD_ONS_10error_infoIT0_T1_EE
	.cfi_startproc
# %bb.0:
	pushq	%rbp
	.cfi_def_cfa_offset 16
	.cfi_offset %rbp, -16
	movq	%rsp, %rbp
	.cfi_def_cfa_register %rbp
	pushq	%rbx
	subq	$24, %rsp
	.cfi_offset %rbx, -24
	movq	%rdi, -24(%rbp)
	movq	%rsi, -16(%rbp)
	movq	-24(%rbp), %rbx
	movq	-16(%rbp), %rdi
	callq	_ZSt4moveIRN5boost10error_infoINS0_11throw_file_EPKcEEEONSt16remove_referenceIT_E4typeEOS8_
	movq	%rbx, %rdi
	movq	%rax, %rsi
	callq	_ZN5boost16exception_detail8set_infoINS0_10clone_implINS0_10bad_alloc_EEENS_11throw_file_EPKcEERKT_SA_ONS_10error_infoIT0_T1_EE
	addq	$24, %rsp
	popq	%rbx
	popq	%rbp
	.cfi_def_cfa %rsp, 8
	retq
.Lfunc_end144:
	.size	_ZN5boostlsINS_16exception_detail10clone_implINS1_10bad_alloc_EEENS_11throw_file_EPKcEENS_9enable_ifINS1_23derives_boost_exceptionIT_EERKSA_E4typeESD_ONS_10error_infoIT0_T1_EE, .Lfunc_end144-_ZN5boostlsINS_16exception_detail10clone_implINS1_10bad_alloc_EEENS_11throw_file_EPKcEENS_9enable_ifINS1_23derives_boost_exceptionIT_EERKSA_E4typeESD_ONS_10error_infoIT0_T1_EE
	.cfi_endproc
                                        # -- End function
	.section	.text._ZN5boostlsINS_16exception_detail10clone_implINS1_10bad_alloc_EEENS_11throw_line_EiEENS_9enable_ifINS1_23derives_boost_exceptionIT_EERKS8_E4typeESB_ONS_10error_infoIT0_T1_EE,"axG",@progbits,_ZN5boostlsINS_16exception_detail10clone_implINS1_10bad_alloc_EEENS_11throw_line_EiEENS_9enable_ifINS1_23derives_boost_exceptionIT_EERKS8_E4typeESB_ONS_10error_infoIT0_T1_EE,comdat
	.weak	_ZN5boostlsINS_16exception_detail10clone_implINS1_10bad_alloc_EEENS_11throw_line_EiEENS_9enable_ifINS1_23derives_boost_exceptionIT_EERKS8_E4typeESB_ONS_10error_infoIT0_T1_EE # -- Begin function _ZN5boostlsINS_16exception_detail10clone_implINS1_10bad_alloc_EEENS_11throw_line_EiEENS_9enable_ifINS1_23derives_boost_exceptionIT_EERKS8_E4typeESB_ONS_10error_infoIT0_T1_EE
	.p2align	4, 0x90
	.type	_ZN5boostlsINS_16exception_detail10clone_implINS1_10bad_alloc_EEENS_11throw_line_EiEENS_9enable_ifINS1_23derives_boost_exceptionIT_EERKS8_E4typeESB_ONS_10error_infoIT0_T1_EE,@function
_ZN5boostlsINS_16exception_detail10clone_implINS1_10bad_alloc_EEENS_11throw_line_EiEENS_9enable_ifINS1_23derives_boost_exceptionIT_EERKS8_E4typeESB_ONS_10error_infoIT0_T1_EE: # @_ZN5boostlsINS_16exception_detail10clone_implINS1_10bad_alloc_EEENS_11throw_line_EiEENS_9enable_ifINS1_23derives_boost_exceptionIT_EERKS8_E4typeESB_ONS_10error_infoIT0_T1_EE
	.cfi_startproc
# %bb.0:
	pushq	%rbp
	.cfi_def_cfa_offset 16
	.cfi_offset %rbp, -16
	movq	%rsp, %rbp
	.cfi_def_cfa_register %rbp
	pushq	%rbx
	subq	$24, %rsp
	.cfi_offset %rbx, -24
	movq	%rdi, -24(%rbp)
	movq	%rsi, -16(%rbp)
	movq	-24(%rbp), %rbx
	movq	-16(%rbp), %rdi
	callq	_ZSt4moveIRN5boost10error_infoINS0_11throw_line_EiEEEONSt16remove_referenceIT_E4typeEOS6_
	movq	%rbx, %rdi
	movq	%rax, %rsi
	callq	_ZN5boost16exception_detail8set_infoINS0_10clone_implINS0_10bad_alloc_EEENS_11throw_line_EiEERKT_S8_ONS_10error_infoIT0_T1_EE
	addq	$24, %rsp
	popq	%rbx
	popq	%rbp
	.cfi_def_cfa %rsp, 8
	retq
.Lfunc_end145:
	.size	_ZN5boostlsINS_16exception_detail10clone_implINS1_10bad_alloc_EEENS_11throw_line_EiEENS_9enable_ifINS1_23derives_boost_exceptionIT_EERKS8_E4typeESB_ONS_10error_infoIT0_T1_EE, .Lfunc_end145-_ZN5boostlsINS_16exception_detail10clone_implINS1_10bad_alloc_EEENS_11throw_line_EiEENS_9enable_ifINS1_23derives_boost_exceptionIT_EERKS8_E4typeESB_ONS_10error_infoIT0_T1_EE
	.cfi_endproc
                                        # -- End function
	.section	.text._ZN5boost16exception_detail10clone_implINS0_10bad_alloc_EEC1ERKS3_,"axG",@progbits,_ZN5boost16exception_detail10clone_implINS0_10bad_alloc_EEC1ERKS3_,comdat
	.weak	_ZN5boost16exception_detail10clone_implINS0_10bad_alloc_EEC1ERKS3_ # -- Begin function _ZN5boost16exception_detail10clone_implINS0_10bad_alloc_EEC1ERKS3_
	.p2align	4, 0x90
	.type	_ZN5boost16exception_detail10clone_implINS0_10bad_alloc_EEC1ERKS3_,@function
_ZN5boost16exception_detail10clone_implINS0_10bad_alloc_EEC1ERKS3_: # @_ZN5boost16exception_detail10clone_implINS0_10bad_alloc_EEC1ERKS3_
.Lfunc_begin26:
	.cfi_startproc
	.cfi_personality 3, __gxx_personality_v0
	.cfi_lsda 3, .Lexception26
# %bb.0:
	pushq	%rbp
	.cfi_def_cfa_offset 16
	.cfi_offset %rbp, -16
	movq	%rsp, %rbp
	.cfi_def_cfa_register %rbp
	pushq	%rbx
	subq	$40, %rsp
	.cfi_offset %rbx, -24
	movq	%rdi, -32(%rbp)
	movq	%rsi, -16(%rbp)
	movq	-32(%rbp), %rbx
	movq	%rbx, %rdi
	addq	$48, %rdi
	movq	-16(%rbp), %rsi
	movq	(%rsi), %rax
	movq	-24(%rax), %rax
	addq	%rax, %rsi
	callq	_ZN5boost16exception_detail10clone_baseC2ERKS1_
	movq	-16(%rbp), %rsi
.Ltmp174:
	movq	%rbx, %rdi
	callq	_ZN5boost16exception_detail10bad_alloc_C2ERKS1_
.Ltmp175:
	jmp	.LBB146_1
.LBB146_1:
	movabsq	$_ZTVN5boost16exception_detail10clone_implINS0_10bad_alloc_EEE, %rax
	movq	%rax, %rcx
	addq	$136, %rcx
	movq	%rax, %rdx
	addq	$72, %rdx
	addq	$24, %rax
	movq	%rax, (%rbx)
	movq	%rdx, 40(%rbx)
	movq	%rcx, 48(%rbx)
	addq	$40, %rsp
	popq	%rbx
	popq	%rbp
	.cfi_def_cfa %rsp, 8
	retq
.LBB146_2:
	.cfi_def_cfa %rbp, 16
.Ltmp176:
	movq	%rax, -24(%rbp)
	movl	%edx, -36(%rbp)
	addq	$48, %rbx
	movq	%rbx, %rdi
	callq	_ZN5boost16exception_detail10clone_baseD2Ev
# %bb.3:
	movq	-24(%rbp), %rdi
	callq	_Unwind_Resume
.Lfunc_end146:
	.size	_ZN5boost16exception_detail10clone_implINS0_10bad_alloc_EEC1ERKS3_, .Lfunc_end146-_ZN5boost16exception_detail10clone_implINS0_10bad_alloc_EEC1ERKS3_
	.cfi_endproc
	.section	.gcc_except_table,"a",@progbits
	.p2align	2
GCC_except_table146:
.Lexception26:
	.byte	255                     # @LPStart Encoding = omit
	.byte	255                     # @TType Encoding = omit
	.byte	1                       # Call site Encoding = uleb128
	.uleb128 .Lcst_end26-.Lcst_begin26
.Lcst_begin26:
	.uleb128 .Ltmp174-.Lfunc_begin26 # >> Call Site 1 <<
	.uleb128 .Ltmp175-.Ltmp174      #   Call between .Ltmp174 and .Ltmp175
	.uleb128 .Ltmp176-.Lfunc_begin26 #     jumps to .Ltmp176
	.byte	0                       #   On action: cleanup
	.uleb128 .Ltmp175-.Lfunc_begin26 # >> Call Site 2 <<
	.uleb128 .Lfunc_end146-.Ltmp175 #   Call between .Ltmp175 and .Lfunc_end146
	.byte	0                       #     has no landing pad
	.byte	0                       #   On action: cleanup
.Lcst_end26:
	.p2align	2
                                        # -- End function
	.section	.text._ZN5boost10shared_ptrIKNS_16exception_detail10clone_baseEEC2INS1_10clone_implINS1_10bad_alloc_EEEEEPT_,"axG",@progbits,_ZN5boost10shared_ptrIKNS_16exception_detail10clone_baseEEC2INS1_10clone_implINS1_10bad_alloc_EEEEEPT_,comdat
	.weak	_ZN5boost10shared_ptrIKNS_16exception_detail10clone_baseEEC2INS1_10clone_implINS1_10bad_alloc_EEEEEPT_ # -- Begin function _ZN5boost10shared_ptrIKNS_16exception_detail10clone_baseEEC2INS1_10clone_implINS1_10bad_alloc_EEEEEPT_
	.p2align	4, 0x90
	.type	_ZN5boost10shared_ptrIKNS_16exception_detail10clone_baseEEC2INS1_10clone_implINS1_10bad_alloc_EEEEEPT_,@function
_ZN5boost10shared_ptrIKNS_16exception_detail10clone_baseEEC2INS1_10clone_implINS1_10bad_alloc_EEEEEPT_: # @_ZN5boost10shared_ptrIKNS_16exception_detail10clone_baseEEC2INS1_10clone_implINS1_10bad_alloc_EEEEEPT_
.Lfunc_begin27:
	.cfi_startproc
	.cfi_personality 3, __gxx_personality_v0
	.cfi_lsda 3, .Lexception27
# %bb.0:
	pushq	%rbp
	.cfi_def_cfa_offset 16
	.cfi_offset %rbp, -16
	movq	%rsp, %rbp
	.cfi_def_cfa_register %rbp
	pushq	%r14
	pushq	%rbx
	subq	$32, %rsp
	.cfi_offset %rbx, -32
	.cfi_offset %r14, -24
	xorl	%eax, %eax
	movq	%rdi, -40(%rbp)
	movq	%rsi, -24(%rbp)
	movq	-40(%rbp), %r14
	movq	-24(%rbp), %rcx
	cmpq	$0, %rcx
	je	.LBB147_2
# %bb.1:
	movq	(%rcx), %rax
	movq	-24(%rax), %rax
	addq	%rax, %rcx
	movq	%rcx, %rax
.LBB147_2:
	movq	%rax, (%r14)
	movq	%r14, %rbx
	addq	$8, %rbx
	movq	%rbx, %rdi
	callq	_ZN5boost6detail12shared_countC2Ev
	movq	-24(%rbp), %rsi
.Ltmp177:
	movq	%r14, %rdi
	movq	%rbx, %rdx
	callq	_ZN5boost6detail20sp_pointer_constructIKNS_16exception_detail10clone_baseENS2_10clone_implINS2_10bad_alloc_EEEEEvPNS_10shared_ptrIT_EEPT0_RNS0_12shared_countE
.Ltmp178:
	jmp	.LBB147_3
.LBB147_3:
	addq	$32, %rsp
	popq	%rbx
	popq	%r14
	popq	%rbp
	.cfi_def_cfa %rsp, 8
	retq
.LBB147_4:
	.cfi_def_cfa %rbp, 16
.Ltmp179:
	movq	%rax, -32(%rbp)
	movl	%edx, -44(%rbp)
	movq	%rbx, %rdi
	callq	_ZN5boost6detail12shared_countD2Ev
# %bb.5:
	movq	-32(%rbp), %rdi
	callq	_Unwind_Resume
.Lfunc_end147:
	.size	_ZN5boost10shared_ptrIKNS_16exception_detail10clone_baseEEC2INS1_10clone_implINS1_10bad_alloc_EEEEEPT_, .Lfunc_end147-_ZN5boost10shared_ptrIKNS_16exception_detail10clone_baseEEC2INS1_10clone_implINS1_10bad_alloc_EEEEEPT_
	.cfi_endproc
	.section	.gcc_except_table,"a",@progbits
	.p2align	2
GCC_except_table147:
.Lexception27:
	.byte	255                     # @LPStart Encoding = omit
	.byte	255                     # @TType Encoding = omit
	.byte	1                       # Call site Encoding = uleb128
	.uleb128 .Lcst_end27-.Lcst_begin27
.Lcst_begin27:
	.uleb128 .Ltmp177-.Lfunc_begin27 # >> Call Site 1 <<
	.uleb128 .Ltmp178-.Ltmp177      #   Call between .Ltmp177 and .Ltmp178
	.uleb128 .Ltmp179-.Lfunc_begin27 #     jumps to .Ltmp179
	.byte	0                       #   On action: cleanup
	.uleb128 .Ltmp178-.Lfunc_begin27 # >> Call Site 2 <<
	.uleb128 .Lfunc_end147-.Ltmp178 #   Call between .Ltmp178 and .Lfunc_end147
	.byte	0                       #     has no landing pad
	.byte	0                       #   On action: cleanup
.Lcst_end27:
	.p2align	2
                                        # -- End function
	.section	.text._ZN5boost16exception_detail10clone_implINS0_10bad_alloc_EED1Ev,"axG",@progbits,_ZN5boost16exception_detail10clone_implINS0_10bad_alloc_EED1Ev,comdat
	.weak	_ZN5boost16exception_detail10clone_implINS0_10bad_alloc_EED1Ev # -- Begin function _ZN5boost16exception_detail10clone_implINS0_10bad_alloc_EED1Ev
	.p2align	4, 0x90
	.type	_ZN5boost16exception_detail10clone_implINS0_10bad_alloc_EED1Ev,@function
_ZN5boost16exception_detail10clone_implINS0_10bad_alloc_EED1Ev: # @_ZN5boost16exception_detail10clone_implINS0_10bad_alloc_EED1Ev
	.cfi_startproc
# %bb.0:
	pushq	%rbp
	.cfi_def_cfa_offset 16
	.cfi_offset %rbp, -16
	movq	%rsp, %rbp
	.cfi_def_cfa_register %rbp
	pushq	%rbx
	pushq	%rax
	.cfi_offset %rbx, -24
	movq	%rdi, -16(%rbp)
	movq	-16(%rbp), %rbx
	movq	%rbx, %rdi
	movabsq	$_ZTTN5boost16exception_detail10clone_implINS0_10bad_alloc_EEE, %rsi
	callq	_ZN5boost16exception_detail10clone_implINS0_10bad_alloc_EED2Ev
	addq	$48, %rbx
	movq	%rbx, %rdi
	callq	_ZN5boost16exception_detail10clone_baseD2Ev
	addq	$8, %rsp
	popq	%rbx
	popq	%rbp
	.cfi_def_cfa %rsp, 8
	retq
.Lfunc_end148:
	.size	_ZN5boost16exception_detail10clone_implINS0_10bad_alloc_EED1Ev, .Lfunc_end148-_ZN5boost16exception_detail10clone_implINS0_10bad_alloc_EED1Ev
	.cfi_endproc
